(lp0
(I0
I2
I01
tp1
a(I1
I17
I01
tp2
a(I2
I7
I00
tp3
a(I2
I27
I00
tp4
a(I2
I2
I00
tp5
a(I2
I18
I00
tp6
a(I2
I17
I00
tp7
a(I2
I10
I00
tp8
a(I2
I20
I00
tp9
a(I2
I3
I00
tp10
a(I3
I20
I01
tp11
a(I4
I10
I01
tp12
a(I4
I14
I01
tp13
a(I0
I14
I01
tp14
a(I2
I14
I01
tp15
a(I1
I14
I01
tp16
a(I3
I14
I01
tp17
a.