(lp0
(I0
I20
I01
tp1
a(I1
I3
I01
tp2
a(I2
I20
I01
tp3
a(I3
I3
I01
tp4
a(I2
I10
I01
tp5
a(I1
I30
I01
tp6
a(I3
I30
I01
tp7
a(I2
I30
I01
tp8
a(I0
I30
I01
tp9
a(I4
I27
I01
tp10
a(I5
I10
I00
tp11
a(I5
I17
I00
tp12
a(I5
I7
I00
tp13
a(I5
I2
I00
tp14
a(I5
I18
I00
tp15
a(I5
I27
I00
tp16
a(I5
I3
I00
tp17
a(I5
I20
I00
tp18
a(I1
I10
I00
tp19
a(I2
I17
I01
tp20
a(I1
I2
I00
tp21
a(I4
I15
I01
tp22
a(I2
I15
I01
tp23
a(I5
I15
I01
tp24
a.