(lp0
(I0
I27
I00
tp1
a(I0
I18
I00
tp2
a(I0
I10
I00
tp3
a(I0
I20
I00
tp4
a(I0
I17
I00
tp5
a(I0
I7
I00
tp6
a(I0
I3
I00
tp7
a(I0
I2
I00
tp8
a(I1
I27
I00
tp9
a(I1
I18
I00
tp10
a(I1
I10
I00
tp11
a(I1
I20
I00
tp12
a(I1
I17
I00
tp13
a(I1
I7
I00
tp14
a(I1
I3
I00
tp15
a(I1
I2
I00
tp16
a(I2
I17
I01
tp17
a(I2
I15
I01
tp18
a(I3
I15
I01
tp19
a(I4
I15
I01
tp20
a(I1
I15
I01
tp21
a(I5
I15
I01
tp22
a(I0
I15
I01
tp23
a(I6
I3
I01
tp24
a(I7
I2
I01
tp25
a(I8
I2
I01
tp26
a(I7
I8
I01
tp27
a(I8
I8
I01
tp28
a(I6
I8
I01
tp29
a(I9
I2
I01
tp30
a(I10
I3
I00
tp31
a(I10
I7
I00
tp32
a(I10
I27
I00
tp33
a(I10
I18
I00
tp34
a(I10
I10
I00
tp35
a(I10
I20
I00
tp36
a(I10
I17
I00
tp37
a(I10
I2
I00
tp38
a(I11
I10
I01
tp39
a(I9
I31
I01
tp40
a(I11
I31
I01
tp41
a(I10
I31
I01
tp42
a(I12
I3
I01
tp43
a(I13
I18
I01
tp44
a(I14
I20
I01
tp45
a(I13
I30
I01
tp46
a(I14
I30
I01
tp47
a(I12
I30
I01
tp48
a(I15
I18
I01
tp49
a(I16
I17
I01
tp50
a(I15
I20
I00
tp51
a(I15
I14
I01
tp52
a(I16
I14
I01
tp53
a(I17
I27
I00
tp54
a(I17
I10
I01
tp55
a(I17
I2
I01
tp56
a(I18
I30
I01
tp57
a(I17
I30
I01
tp58
a(I10
I7
I00
tp59
a(I10
I17
I00
tp60
a(I10
I3
I00
tp61
a(I10
I2
I00
tp62
a(I10
I18
I00
tp63
a(I10
I27
I00
tp64
a(I10
I10
I00
tp65
a(I10
I20
I00
tp66
a(I9
I17
I00
tp67
a(I9
I2
I01
tp68
a(I9
I31
I01
tp69
a(I19
I31
I01
tp70
a(I10
I31
I01
tp71
a(I16
I2
I01
tp72
a(I20
I27
I01
tp73
a(I16
I17
I01
tp74
a(I20
I14
I01
tp75
a(I16
I14
I01
tp76
a(I21
I27
I00
tp77
a(I21
I2
I00
tp78
a(I21
I10
I00
tp79
a(I21
I7
I00
tp80
a(I21
I3
I00
tp81
a(I21
I18
I00
tp82
a(I21
I20
I00
tp83
a(I21
I17
I00
tp84
a(I22
I27
I00
tp85
a(I22
I2
I00
tp86
a(I22
I10
I00
tp87
a(I22
I7
I00
tp88
a(I22
I3
I00
tp89
a(I22
I18
I00
tp90
a(I22
I20
I00
tp91
a(I22
I17
I00
tp92
a(I23
I3
I01
tp93
a(I23
I8
I01
tp94
a(I21
I8
I01
tp95
a(I22
I8
I01
tp96
a(I24
I18
I00
tp97
a(I25
I27
I00
tp98
a(I25
I2
I00
tp99
a(I25
I10
I00
tp100
a(I25
I7
I00
tp101
a(I25
I3
I00
tp102
a(I25
I18
I00
tp103
a(I25
I20
I00
tp104
a(I25
I17
I00
tp105
a(I26
I27
I00
tp106
a(I24
I5
I01
tp107
a(I25
I5
I01
tp108
a(I26
I5
I01
tp109
a(I21
I5
I01
tp110
a(I22
I31
I00
tp111
a(I0
I8
I01
tp112
a(I21
I8
I01
tp113
a(I27
I0
I01
tp114
a(I0
I0
I01
tp115
a(I22
I0
I01
tp116
a(I21
I0
I01
tp117
a.