(iIspyAgent
IspyAgent
p0
(dp1
S'classifier_data_modified'
p2
(dp3
I32
I00
sI33
I00
sI34
I00
sI35
I00
sI36
I00
sI37
I00
sI38
I01
sI16
I00
sI17
I00
sI19
I00
sI21
I00
sI23
I00
sI24
I00
sI25
I00
sI26
I01
sI27
I01
sI28
I01
sI29
I01
sI30
I00
sI31
I00
ssS'predicate_to_classifier_map'
p4
(dp5
S'heavy'
p6
I33
sS'ridged'
p7
I19
sS'handle'
p8
I32
sS'heavy_2'
p9
I38
sS'heavy_1'
p10
I37
sS'cup'
p11
I29
sS'metal'
p12
I34
sS'cannister'
p13
I35
sS'mug'
p14
I31
sS'yellow'
p15
I23
sS'plastic'
p16
I28
sS'water'
p17
I24
sS'tin'
p18
I17
sS'can'
p19
I21
sS'bottle'
p20
I25
sS'pewter'
p21
I30
sS'small'
p22
I16
sS'tall'
p23
I26
sS'metal+can'
p24
I36
sS'red'
p25
I27
ssS'predicate_active'
p26
(dp27
g6
I00
sg7
I01
sg8
I01
sg9
I01
sg10
I01
sg11
I01
sg13
I01
sg12
I00
sg14
I01
sg15
I01
sg16
I01
sg17
I01
sg18
I01
sg19
I00
sg20
I01
sg21
I01
sg22
I01
sg23
I01
sg24
I01
sg25
I01
ssS'predicate_examples'
p28
(dp29
g6
(lp30
(lp31
I11
aI01
aa(lp32
I7
aI00
aasg7
(lp33
(lp34
I4
aI01
aa(lp35
I7
aI00
aasg8
(lp36
(lp37
I0
aI01
aa(lp38
I4
aI00
aasg9
(lp39
(lp40
I0
aI00
aa(lp41
I1
aI00
aa(lp42
I2
aI00
aa(lp43
I3
aI01
aa(lp44
I4
aI00
aa(lp45
I5
aI01
aa(lp46
I6
aI00
aa(lp47
I7
aI00
aa(lp48
I8
aI01
aa(lp49
I9
aI00
aa(lp50
I10
aI01
aa(lp51
I11
aI00
aa(lp52
I12
aI01
aa(lp53
I13
aI00
aa(lp54
I14
aI01
aa(lp55
I15
aI00
aa(lp56
I16
aI00
aa(lp57
I17
aI01
aa(lp58
I18
aI01
aa(lp59
I19
aI00
aa(lp60
I20
aI01
aa(lp61
I21
aI01
aa(lp62
I22
aI01
aa(lp63
I23
aI00
aa(lp64
I24
aI00
aa(lp65
I25
aI00
aa(lp66
I26
aI01
aa(lp67
I27
aI00
aa(lp68
I28
aI00
aa(lp69
I29
aI01
aa(lp70
I30
aI01
aa(lp71
I31
aI00
aa(lp72
I3
aI00
aasg10
(lp73
(lp74
I0
aI01
aa(lp75
I1
aI01
aa(lp76
I2
aI01
aa(lp77
I3
aI00
aa(lp78
I4
aI01
aa(lp79
I5
aI00
aa(lp80
I6
aI01
aa(lp81
I7
aI01
aa(lp82
I8
aI00
aa(lp83
I9
aI01
aa(lp84
I10
aI00
aa(lp85
I11
aI01
aa(lp86
I12
aI00
aa(lp87
I13
aI01
aa(lp88
I14
aI00
aa(lp89
I15
aI01
aa(lp90
I16
aI01
aa(lp91
I17
aI00
aa(lp92
I18
aI00
aa(lp93
I19
aI01
aa(lp94
I20
aI00
aa(lp95
I21
aI00
aa(lp96
I22
aI00
aa(lp97
I23
aI01
aa(lp98
I24
aI01
aa(lp99
I25
aI01
aa(lp100
I26
aI00
aa(lp101
I27
aI01
aa(lp102
I28
aI01
aa(lp103
I29
aI00
aa(lp104
I30
aI00
aa(lp105
I31
aI01
aasg11
(lp106
(lp107
I7
aI01
aa(lp108
I3
aI00
aa(lp109
I7
aI01
aasg12
(lp110
(lp111
I11
aI01
aa(lp112
I7
aI00
aa(lp113
I4
aI01
aa(lp114
I7
aI00
aasg13
(lp115
(lp116
I11
aI01
aa(lp117
I7
aI00
aasg18
(lp118
(lp119
I4
aI01
aa(lp120
I11
aI01
aasg15
(lp121
(lp122
I3
aI01
aa(lp123
I4
aI00
aasg16
(lp124
(lp125
I7
aI01
aa(lp126
I3
aI01
aa(lp127
I7
aI01
aasg17
(lp128
(lp129
I3
aI01
aa(lp130
I4
aI00
aasg14
(lp131
(lp132
I0
aI01
aa(lp133
I4
aI00
aasg19
(lp134
(lp135
I4
aI01
aa(lp136
I11
aI01
aa(lp137
I4
aI01
aa(lp138
I7
aI00
aasg20
(lp139
(lp140
I3
aI01
aa(lp141
I4
aI00
aasg21
(lp142
(lp143
I0
aI01
aa(lp144
I4
aI01
aasg22
(lp145
(lp146
I4
aI01
aa(lp147
I11
aI01
aasg23
(lp148
(lp149
I3
aI01
aa(lp150
I7
aI01
aa(lp151
I7
aI01
aasg24
(lp152
g111
ag112
ag113
ag114
ag135
ag136
ag137
ag138
asg25
(lp153
(lp154
I7
aI01
aa(lp155
I3
aI00
aa(lp156
I7
aI01
aassS'predicates_to_words'
p157
(dp158
g6
(lp159
g6
asg7
(lp160
g7
asg8
(lp161
g8
asg9
(lp162
g6
asg10
(lp163
g6
asg11
(lp164
g11
asg12
(lp165
g12
asg13
(lp166
g13
asg18
(lp167
g18
asg15
(lp168
g15
asg16
(lp169
g16
asg17
(lp170
g17
asg14
(lp171
g14
asg19
(lp172
g19
asg20
(lp173
g20
asg21
(lp174
g21
asg22
(lp175
g22
asg23
(lp176
g23
asg24
(lp177
g12
ag19
asg25
(lp178
g25
assS'classifier_to_predicate_map'
p179
(dp180
I32
g8
sI33
g6
sI34
g12
sI35
g13
sI36
g24
sI37
g10
sI38
g9
sI16
g22
sI17
g18
sI19
g7
sI21
g19
sI23
g15
sI24
g17
sI25
g20
sI26
g23
sI27
g25
sI28
g16
sI29
g11
sI30
g21
sI31
g14
ssS'object_IDs'
p181
(lp182
I11
aI7
aI3
aI0
aI4
asS'simulation'
p183
I01
sS'u_in'
p184
(iagent_io
InputFromFile
p185
(dp186
S'get_fn'
p187
S'/u/jesse/public_html/ispy/communications/4001.get.in'
p188
sS'guess_fn'
p189
S'/u/jesse/public_html/ispy/communications/4001.guess.in'
p190
sbsS'stopwords'
p191
(lp192
S'a'
p193
aS"a's"
p194
aS'able'
p195
aS'about'
p196
aS'above'
p197
aS'according'
p198
aS'accordingly'
p199
aS'across'
p200
aS'actually'
p201
aS'after'
p202
aS'afterwards'
p203
aS'again'
p204
aS'against'
p205
aS"ain't"
p206
aS'all'
p207
aS'allow'
p208
aS'allows'
p209
aS'almost'
p210
aS'alone'
p211
aS'along'
p212
aS'already'
p213
aS'also'
p214
aS'although'
p215
aS'always'
p216
aS'am'
p217
aS'among'
p218
aS'amongst'
p219
aS'an'
p220
aS'and'
p221
aS'another'
p222
aS'any'
p223
aS'anybody'
p224
aS'anyhow'
p225
aS'anyone'
p226
aS'anything'
p227
aS'anyway'
p228
aS'anyways'
p229
aS'anywhere'
p230
aS'apart'
p231
aS'appear'
p232
aS'appreciate'
p233
aS'appropriate'
p234
aS'are'
p235
aS"aren't"
p236
aS'around'
p237
aS'as'
p238
aS'aside'
p239
aS'ask'
p240
aS'asking'
p241
aS'associated'
p242
aS'at'
p243
aS'available'
p244
aS'away'
p245
aS'awfully'
p246
aS'b'
p247
aS'be'
p248
aS'became'
p249
aS'because'
p250
aS'become'
p251
aS'becomes'
p252
aS'becoming'
p253
aS'been'
p254
aS'before'
p255
aS'beforehand'
p256
aS'behind'
p257
aS'being'
p258
aS'believe'
p259
aS'below'
p260
aS'beside'
p261
aS'besides'
p262
aS'best'
p263
aS'better'
p264
aS'between'
p265
aS'beyond'
p266
aS'both'
p267
aS'brief'
p268
aS'but'
p269
aS'by'
p270
aS'c'
p271
aS"c'mon"
p272
aS"c's"
p273
aS'came'
p274
aS"can't"
p275
aS'cannot'
p276
aS'cant'
p277
aS'cause'
p278
aS'causes'
p279
aS'certain'
p280
aS'certainly'
p281
aS'changes'
p282
aS'clearly'
p283
aS'co'
p284
aS'com'
p285
aS'come'
p286
aS'comes'
p287
aS'concerning'
p288
aS'consequently'
p289
aS'consider'
p290
aS'considering'
p291
aS'contain'
p292
aS'containing'
p293
aS'contains'
p294
aS'corresponding'
p295
aS'could'
p296
aS"couldn't"
p297
aS'course'
p298
aS'currently'
p299
aS'd'
p300
aS'definitely'
p301
aS'described'
p302
aS'despite'
p303
aS'did'
p304
aS"didn't"
p305
aS'different'
p306
aS'do'
p307
aS'does'
p308
aS"doesn't"
p309
aS'doing'
p310
aS"don't"
p311
aS'done'
p312
aS'down'
p313
aS'downwards'
p314
aS'during'
p315
aS'e'
p316
aS'each'
p317
aS'edu'
p318
aS'eg'
p319
aS'eight'
p320
aS'either'
p321
aS'else'
p322
aS'elsewhere'
p323
aS'enough'
p324
aS'entirely'
p325
aS'especially'
p326
aS'et'
p327
aS'etc'
p328
aS'even'
p329
aS'ever'
p330
aS'every'
p331
aS'everybody'
p332
aS'everyone'
p333
aS'everything'
p334
aS'everywhere'
p335
aS'ex'
p336
aS'exactly'
p337
aS'example'
p338
aS'except'
p339
aS'f'
p340
aS'far'
p341
aS'few'
p342
aS'fifth'
p343
aS'first'
p344
aS'five'
p345
aS'followed'
p346
aS'following'
p347
aS'follows'
p348
aS'for'
p349
aS'former'
p350
aS'formerly'
p351
aS'forth'
p352
aS'four'
p353
aS'from'
p354
aS'further'
p355
aS'furthermore'
p356
aS'g'
p357
aS'get'
p358
aS'gets'
p359
aS'getting'
p360
aS'given'
p361
aS'gives'
p362
aS'go'
p363
aS'goes'
p364
aS'going'
p365
aS'gone'
p366
aS'got'
p367
aS'gotten'
p368
aS'greetings'
p369
aS'h'
p370
aS'had'
p371
aS"hadn't"
p372
aS'happens'
p373
aS'hardly'
p374
aS'has'
p375
aS"hasn't"
p376
aS'have'
p377
aS"haven't"
p378
aS'having'
p379
aS'he'
p380
aS"he's"
p381
aS'hello'
p382
aS'help'
p383
aS'hence'
p384
aS'her'
p385
aS'here'
p386
aS"here's"
p387
aS'hereafter'
p388
aS'hereby'
p389
aS'herein'
p390
aS'hereupon'
p391
aS'hers'
p392
aS'herself'
p393
aS'hi'
p394
aS'him'
p395
aS'himself'
p396
aS'his'
p397
aS'hither'
p398
aS'hopefully'
p399
aS'how'
p400
aS'howbeit'
p401
aS'however'
p402
aS'i'
p403
aS"i'd"
p404
aS"i'll"
p405
aS"i'm"
p406
aS"i've"
p407
aS'ie'
p408
aS'if'
p409
aS'ignored'
p410
aS'immediate'
p411
aS'in'
p412
aS'inasmuch'
p413
aS'inc'
p414
aS'indeed'
p415
aS'indicate'
p416
aS'indicated'
p417
aS'indicates'
p418
aS'inner'
p419
aS'insofar'
p420
aS'instead'
p421
aS'into'
p422
aS'inward'
p423
aS'is'
p424
aS"isn't"
p425
aS'it'
p426
aS"it'd"
p427
aS"it'll"
p428
aS"it's"
p429
aS'its'
p430
aS'itself'
p431
aS'j'
p432
aS'just'
p433
aS'k'
p434
aS'keep'
p435
aS'keeps'
p436
aS'kept'
p437
aS'know'
p438
aS'knows'
p439
aS'known'
p440
aS'l'
p441
aS'last'
p442
aS'lately'
p443
aS'later'
p444
aS'latter'
p445
aS'latterly'
p446
aS'least'
p447
aS'less'
p448
aS'lest'
p449
aS'let'
p450
aS"let's"
p451
aS'like'
p452
aS'liked'
p453
aS'likely'
p454
aS'little'
p455
aS'look'
p456
aS'looking'
p457
aS'looks'
p458
aS'ltd'
p459
aS'm'
p460
aS'mainly'
p461
aS'many'
p462
aS'may'
p463
aS'maybe'
p464
aS'me'
p465
aS'mean'
p466
aS'meanwhile'
p467
aS'merely'
p468
aS'might'
p469
aS'more'
p470
aS'moreover'
p471
aS'most'
p472
aS'mostly'
p473
aS'much'
p474
aS'must'
p475
aS'my'
p476
aS'myself'
p477
aS'n'
p478
aS'name'
p479
aS'namely'
p480
aS'nd'
p481
aS'near'
p482
aS'nearly'
p483
aS'necessary'
p484
aS'need'
p485
aS'needs'
p486
aS'neither'
p487
aS'never'
p488
aS'nevertheless'
p489
aS'new'
p490
aS'next'
p491
aS'nine'
p492
aS'no'
p493
aS'nobody'
p494
aS'non'
p495
aS'none'
p496
aS'noone'
p497
aS'nor'
p498
aS'normally'
p499
aS'not'
p500
aS'nothing'
p501
aS'novel'
p502
aS'now'
p503
aS'nowhere'
p504
aS'o'
p505
aS'obviously'
p506
aS'of'
p507
aS'off'
p508
aS'often'
p509
aS'oh'
p510
aS'ok'
p511
aS'okay'
p512
aS'old'
p513
aS'on'
p514
aS'once'
p515
aS'one'
p516
aS'ones'
p517
aS'only'
p518
aS'onto'
p519
aS'or'
p520
aS'other'
p521
aS'others'
p522
aS'otherwise'
p523
aS'ought'
p524
aS'our'
p525
aS'ours'
p526
aS'ourselves'
p527
aS'out'
p528
aS'outside'
p529
aS'over'
p530
aS'overall'
p531
aS'own'
p532
aS'p'
p533
aS'particular'
p534
aS'particularly'
p535
aS'per'
p536
aS'perhaps'
p537
aS'placed'
p538
aS'please'
p539
aS'plus'
p540
aS'possible'
p541
aS'presumably'
p542
aS'probably'
p543
aS'provides'
p544
aS'q'
p545
aS'que'
p546
aS'quite'
p547
aS'qv'
p548
aS'r'
p549
aS'rather'
p550
aS'rd'
p551
aS're'
p552
aS'really'
p553
aS'reasonably'
p554
aS'regarding'
p555
aS'regardless'
p556
aS'regards'
p557
aS'relatively'
p558
aS'respectively'
p559
aS'right'
p560
aS's'
p561
aS'said'
p562
aS'same'
p563
aS'saw'
p564
aS'say'
p565
aS'saying'
p566
aS'says'
p567
aS'second'
p568
aS'secondly'
p569
aS'see'
p570
aS'seeing'
p571
aS'seem'
p572
aS'seemed'
p573
aS'seeming'
p574
aS'seems'
p575
aS'seen'
p576
aS'self'
p577
aS'selves'
p578
aS'sensible'
p579
aS'sent'
p580
aS'serious'
p581
aS'seriously'
p582
aS'seven'
p583
aS'several'
p584
aS'shall'
p585
aS'she'
p586
aS'should'
p587
aS"shouldn't"
p588
aS'since'
p589
aS'six'
p590
aS'so'
p591
aS'some'
p592
aS'somebody'
p593
aS'somehow'
p594
aS'someone'
p595
aS'something'
p596
aS'sometime'
p597
aS'sometimes'
p598
aS'somewhat'
p599
aS'somewhere'
p600
aS'soon'
p601
aS'sorry'
p602
aS'specified'
p603
aS'specify'
p604
aS'specifying'
p605
aS'still'
p606
aS'sub'
p607
aS'such'
p608
aS'sup'
p609
aS'sure'
p610
aS't'
p611
aS"t's"
p612
aS'take'
p613
aS'taken'
p614
aS'tell'
p615
aS'tends'
p616
aS'th'
p617
aS'than'
p618
aS'thank'
p619
aS'thanks'
p620
aS'thanx'
p621
aS'that'
p622
aS"that's"
p623
aS'thats'
p624
aS'the'
p625
aS'their'
p626
aS'theirs'
p627
aS'them'
p628
aS'themselves'
p629
aS'then'
p630
aS'thence'
p631
aS'there'
p632
aS"there's"
p633
aS'thereafter'
p634
aS'thereby'
p635
aS'therefore'
p636
aS'therein'
p637
aS'theres'
p638
aS'thereupon'
p639
aS'these'
p640
aS'they'
p641
aS"they'd"
p642
aS"they'll"
p643
aS"they're"
p644
aS"they've"
p645
aS'think'
p646
aS'third'
p647
aS'this'
p648
aS'thorough'
p649
aS'thoroughly'
p650
aS'those'
p651
aS'though'
p652
aS'three'
p653
aS'through'
p654
aS'throughout'
p655
aS'thru'
p656
aS'thus'
p657
aS'to'
p658
aS'together'
p659
aS'too'
p660
aS'took'
p661
aS'toward'
p662
aS'towards'
p663
aS'tried'
p664
aS'tries'
p665
aS'truly'
p666
aS'try'
p667
aS'trying'
p668
aS'twice'
p669
aS'two'
p670
aS'u'
p671
aS'un'
p672
aS'under'
p673
aS'unfortunately'
p674
aS'unless'
p675
aS'unlikely'
p676
aS'until'
p677
aS'unto'
p678
aS'up'
p679
aS'upon'
p680
aS'us'
p681
aS'use'
p682
aS'used'
p683
aS'useful'
p684
aS'uses'
p685
aS'using'
p686
aS'usually'
p687
aS'uucp'
p688
aS'v'
p689
aS'value'
p690
aS'various'
p691
aS'very'
p692
aS'via'
p693
aS'viz'
p694
aS'vs'
p695
aS'w'
p696
aS'want'
p697
aS'wants'
p698
aS'was'
p699
aS"wasn't"
p700
aS'way'
p701
aS'we'
p702
aS"we'd"
p703
aS"we'll"
p704
aS"we're"
p705
aS"we've"
p706
aS'welcome'
p707
aS'well'
p708
aS'went'
p709
aS'were'
p710
aS"weren't"
p711
aS'what'
p712
aS"what's"
p713
aS'whatever'
p714
aS'when'
p715
aS'whence'
p716
aS'whenever'
p717
aS'where'
p718
aS"where's"
p719
aS'whereafter'
p720
aS'whereas'
p721
aS'whereby'
p722
aS'wherein'
p723
aS'whereupon'
p724
aS'wherever'
p725
aS'whether'
p726
aS'which'
p727
aS'while'
p728
aS'whither'
p729
aS'who'
p730
aS"who's"
p731
aS'whoever'
p732
aS'whole'
p733
aS'whom'
p734
aS'whose'
p735
aS'why'
p736
aS'will'
p737
aS'willing'
p738
aS'wish'
p739
aS'with'
p740
aS'within'
p741
aS'without'
p742
aS"won't"
p743
aS'wonder'
p744
aS'would'
p745
aS'would'
p746
aS"wouldn't"
p747
aS'x'
p748
aS'y'
p749
aS'yes'
p750
aS'yet'
p751
aS'you'
p752
aS"you'd"
p753
aS"you'll"
p754
aS"you're"
p755
aS"you've"
p756
aS'your'
p757
aS'yours'
p758
aS'yourself'
p759
aS'yourselves'
p760
aS'z'
p761
aS'zero'
p762
asS'words'
p763
(lp764
g6
ag12
ag13
ag21
ag14
ag8
ag23
ag15
ag17
ag20
ag25
ag16
ag11
ag22
ag18
ag19
ag7
asS'u_out'
p765
(iagent_io
OutputToFile
p766
(dp767
S'point_fn'
p768
S'/u/jesse/public_html/ispy/communications/4001.point.out'
p769
sS'uid'
p770
S'4001'
p771
sS'say_fn'
p772
S'/u/jesse/public_html/ispy/communications/4001.say.out'
p773
sbsS'predicates'
p774
(lp775
g6
ag12
ag13
ag21
ag14
ag8
ag23
ag15
ag17
ag20
ag25
ag16
ag11
ag22
ag18
ag19
ag7
ag24
ag10
ag9
asS'alpha'
p776
F0.9
sS'words_to_predicates'
p777
(dp778
g6
(lp779
g6
ag10
ag9
asg7
(lp780
g7
asg8
(lp781
g8
asg11
(lp782
g11
asg12
(lp783
g12
ag24
asg13
(lp784
g13
asg18
(lp785
g18
asg15
(lp786
g15
asg16
(lp787
g16
asg17
(lp788
g17
asg14
(lp789
g14
asg19
(lp790
g19
ag24
asg20
(lp791
g20
asg21
(lp792
g21
asg22
(lp793
g22
asg23
(lp794
g23
asg25
(lp795
g25
assb.