(iIspyAgent
IspyAgent
p0
(dp1
S'classifier_data_modified'
p2
(dp3
I32
I01
sI33
I00
sI34
I00
sI35
I00
sI43
I01
sI44
I00
sI45
I00
sI16
I00
sI17
I00
sI19
I00
sI21
I00
sI23
I00
sI24
I00
sI25
I00
sI26
I00
sI27
I01
sI28
I00
sI29
I00
sI30
I01
sI31
I00
ssS'predicate_to_classifier_map'
p4
(dp5
S'heavy'
p6
I33
sS'ridged'
p7
I19
sS'handle'
p8
I32
sS'heavy_2'
p9
I45
sS'heavy_1'
p10
I44
sS'cup'
p11
I29
sS'cannister'
p12
I35
sS'metal'
p13
I34
sS'mug'
p14
I31
sS'yellow'
p15
I23
sS'plastic'
p16
I28
sS'water'
p17
I24
sS'tin'
p18
I17
sS'can'
p19
I21
sS'bottle'
p20
I25
sS'pewter'
p21
I30
sS'small'
p22
I16
sS'tall'
p23
I26
sS'metal+can'
p24
I43
sS'red'
p25
I27
ssS'predicate_active'
p26
(dp27
g6
I00
sg7
I01
sg8
I01
sg9
I01
sg10
I01
sg11
I01
sg12
I01
sg13
I00
sg14
I01
sg15
I01
sg16
I01
sg17
I01
sg18
I01
sg19
I00
sg20
I01
sg21
I01
sg22
I01
sg23
I01
sg24
I01
sg25
I01
ssS'predicate_examples'
p28
(dp29
g6
(lp30
(lp31
I11
aI01
aa(lp32
I7
aI00
aasg7
(lp33
(lp34
I4
aI01
aa(lp35
I7
aI00
aasg8
(lp36
(lp37
I0
aI01
aa(lp38
I4
aI00
aa(lp39
I7
aI00
aasg9
(lp40
(lp41
I7
aI00
aa(lp42
I11
aI00
aasg10
(lp43
(lp44
I7
aI01
aa(lp45
I11
aI01
aasg11
(lp46
(lp47
I7
aI01
aa(lp48
I3
aI00
aasg12
(lp49
(lp50
I11
aI01
aa(lp51
I7
aI00
aasg13
(lp52
(lp53
I11
aI01
aa(lp54
I7
aI00
aa(lp55
I4
aI01
aa(lp56
I7
aI00
aasg14
(lp57
(lp58
I0
aI01
aa(lp59
I4
aI00
aasg15
(lp60
(lp61
I3
aI01
aa(lp62
I4
aI00
aasg16
(lp63
(lp64
I7
aI01
aa(lp65
I3
aI01
aasg17
(lp66
(lp67
I3
aI01
aa(lp68
I4
aI00
aasg18
(lp69
(lp70
I4
aI01
aa(lp71
I11
aI01
aasg19
(lp72
(lp73
I4
aI01
aa(lp74
I7
aI00
aa(lp75
I4
aI01
aa(lp76
I11
aI01
aasg20
(lp77
(lp78
I3
aI01
aa(lp79
I4
aI00
aasg21
(lp80
(lp81
I0
aI01
aa(lp82
I4
aI01
aa(lp83
I7
aI00
aasg22
(lp84
(lp85
I4
aI01
aa(lp86
I11
aI01
aasg23
(lp87
(lp88
I7
aI01
aa(lp89
I3
aI01
aasg24
(lp90
g53
ag54
ag55
ag56
ag73
ag74
ag75
ag76
a(lp91
I11
aI01
aa(lp92
I11
aI01
aasg25
(lp93
(lp94
I7
aI01
aa(lp95
I3
aI00
aa(lp96
I7
aI01
aassS'predicates_to_words'
p97
(dp98
g6
(lp99
g6
asg7
(lp100
g7
asg8
(lp101
g8
asg9
(lp102
g6
asg10
(lp103
g6
asg11
(lp104
g11
asg12
(lp105
g12
asg13
(lp106
g13
asg14
(lp107
g14
asg15
(lp108
g15
asg16
(lp109
g16
asg17
(lp110
g17
asg18
(lp111
g18
asg19
(lp112
g19
asg20
(lp113
g20
asg21
(lp114
g21
asg22
(lp115
g22
asg23
(lp116
g23
asg24
(lp117
g13
ag19
asg25
(lp118
g25
assS'classifier_to_predicate_map'
p119
(dp120
I32
g8
sI33
g6
sI34
g13
sI35
g12
sI43
g24
sI44
g10
sI45
g9
sI16
g22
sI17
g18
sI19
g7
sI21
g19
sI23
g15
sI24
g17
sI25
g20
sI26
g23
sI27
g25
sI28
g16
sI29
g11
sI30
g21
sI31
g14
ssS'object_IDs'
p121
(lp122
I11
aI3
aI4
aI0
aI7
asS'simulation'
p123
I01
sS'u_in'
p124
(iagent_io
InputFromFile
p125
(dp126
S'get_fn'
p127
S'/u/jesse/public_html/ispy/communications/5002.get.in'
p128
sS'guess_fn'
p129
S'/u/jesse/public_html/ispy/communications/5002.guess.in'
p130
sbsS'stopwords'
p131
(lp132
S'a'
p133
aS"a's"
p134
aS'able'
p135
aS'about'
p136
aS'above'
p137
aS'according'
p138
aS'accordingly'
p139
aS'across'
p140
aS'actually'
p141
aS'after'
p142
aS'afterwards'
p143
aS'again'
p144
aS'against'
p145
aS"ain't"
p146
aS'all'
p147
aS'allow'
p148
aS'allows'
p149
aS'almost'
p150
aS'alone'
p151
aS'along'
p152
aS'already'
p153
aS'also'
p154
aS'although'
p155
aS'always'
p156
aS'am'
p157
aS'among'
p158
aS'amongst'
p159
aS'an'
p160
aS'and'
p161
aS'another'
p162
aS'any'
p163
aS'anybody'
p164
aS'anyhow'
p165
aS'anyone'
p166
aS'anything'
p167
aS'anyway'
p168
aS'anyways'
p169
aS'anywhere'
p170
aS'apart'
p171
aS'appear'
p172
aS'appreciate'
p173
aS'appropriate'
p174
aS'are'
p175
aS"aren't"
p176
aS'around'
p177
aS'as'
p178
aS'aside'
p179
aS'ask'
p180
aS'asking'
p181
aS'associated'
p182
aS'at'
p183
aS'available'
p184
aS'away'
p185
aS'awfully'
p186
aS'b'
p187
aS'be'
p188
aS'became'
p189
aS'because'
p190
aS'become'
p191
aS'becomes'
p192
aS'becoming'
p193
aS'been'
p194
aS'before'
p195
aS'beforehand'
p196
aS'behind'
p197
aS'being'
p198
aS'believe'
p199
aS'below'
p200
aS'beside'
p201
aS'besides'
p202
aS'best'
p203
aS'better'
p204
aS'between'
p205
aS'beyond'
p206
aS'both'
p207
aS'brief'
p208
aS'but'
p209
aS'by'
p210
aS'c'
p211
aS"c'mon"
p212
aS"c's"
p213
aS'came'
p214
aS"can't"
p215
aS'cannot'
p216
aS'cant'
p217
aS'cause'
p218
aS'causes'
p219
aS'certain'
p220
aS'certainly'
p221
aS'changes'
p222
aS'clearly'
p223
aS'co'
p224
aS'com'
p225
aS'come'
p226
aS'comes'
p227
aS'concerning'
p228
aS'consequently'
p229
aS'consider'
p230
aS'considering'
p231
aS'contain'
p232
aS'containing'
p233
aS'contains'
p234
aS'corresponding'
p235
aS'could'
p236
aS"couldn't"
p237
aS'course'
p238
aS'currently'
p239
aS'd'
p240
aS'definitely'
p241
aS'described'
p242
aS'despite'
p243
aS'did'
p244
aS"didn't"
p245
aS'different'
p246
aS'do'
p247
aS'does'
p248
aS"doesn't"
p249
aS'doing'
p250
aS"don't"
p251
aS'done'
p252
aS'down'
p253
aS'downwards'
p254
aS'during'
p255
aS'e'
p256
aS'each'
p257
aS'edu'
p258
aS'eg'
p259
aS'eight'
p260
aS'either'
p261
aS'else'
p262
aS'elsewhere'
p263
aS'enough'
p264
aS'entirely'
p265
aS'especially'
p266
aS'et'
p267
aS'etc'
p268
aS'even'
p269
aS'ever'
p270
aS'every'
p271
aS'everybody'
p272
aS'everyone'
p273
aS'everything'
p274
aS'everywhere'
p275
aS'ex'
p276
aS'exactly'
p277
aS'example'
p278
aS'except'
p279
aS'f'
p280
aS'far'
p281
aS'few'
p282
aS'fifth'
p283
aS'first'
p284
aS'five'
p285
aS'followed'
p286
aS'following'
p287
aS'follows'
p288
aS'for'
p289
aS'former'
p290
aS'formerly'
p291
aS'forth'
p292
aS'four'
p293
aS'from'
p294
aS'further'
p295
aS'furthermore'
p296
aS'g'
p297
aS'get'
p298
aS'gets'
p299
aS'getting'
p300
aS'given'
p301
aS'gives'
p302
aS'go'
p303
aS'goes'
p304
aS'going'
p305
aS'gone'
p306
aS'got'
p307
aS'gotten'
p308
aS'greetings'
p309
aS'h'
p310
aS'had'
p311
aS"hadn't"
p312
aS'happens'
p313
aS'hardly'
p314
aS'has'
p315
aS"hasn't"
p316
aS'have'
p317
aS"haven't"
p318
aS'having'
p319
aS'he'
p320
aS"he's"
p321
aS'hello'
p322
aS'help'
p323
aS'hence'
p324
aS'her'
p325
aS'here'
p326
aS"here's"
p327
aS'hereafter'
p328
aS'hereby'
p329
aS'herein'
p330
aS'hereupon'
p331
aS'hers'
p332
aS'herself'
p333
aS'hi'
p334
aS'him'
p335
aS'himself'
p336
aS'his'
p337
aS'hither'
p338
aS'hopefully'
p339
aS'how'
p340
aS'howbeit'
p341
aS'however'
p342
aS'i'
p343
aS"i'd"
p344
aS"i'll"
p345
aS"i'm"
p346
aS"i've"
p347
aS'ie'
p348
aS'if'
p349
aS'ignored'
p350
aS'immediate'
p351
aS'in'
p352
aS'inasmuch'
p353
aS'inc'
p354
aS'indeed'
p355
aS'indicate'
p356
aS'indicated'
p357
aS'indicates'
p358
aS'inner'
p359
aS'insofar'
p360
aS'instead'
p361
aS'into'
p362
aS'inward'
p363
aS'is'
p364
aS"isn't"
p365
aS'it'
p366
aS"it'd"
p367
aS"it'll"
p368
aS"it's"
p369
aS'its'
p370
aS'itself'
p371
aS'j'
p372
aS'just'
p373
aS'k'
p374
aS'keep'
p375
aS'keeps'
p376
aS'kept'
p377
aS'know'
p378
aS'knows'
p379
aS'known'
p380
aS'l'
p381
aS'last'
p382
aS'lately'
p383
aS'later'
p384
aS'latter'
p385
aS'latterly'
p386
aS'least'
p387
aS'less'
p388
aS'lest'
p389
aS'let'
p390
aS"let's"
p391
aS'like'
p392
aS'liked'
p393
aS'likely'
p394
aS'little'
p395
aS'look'
p396
aS'looking'
p397
aS'looks'
p398
aS'ltd'
p399
aS'm'
p400
aS'mainly'
p401
aS'many'
p402
aS'may'
p403
aS'maybe'
p404
aS'me'
p405
aS'mean'
p406
aS'meanwhile'
p407
aS'merely'
p408
aS'might'
p409
aS'more'
p410
aS'moreover'
p411
aS'most'
p412
aS'mostly'
p413
aS'much'
p414
aS'must'
p415
aS'my'
p416
aS'myself'
p417
aS'n'
p418
aS'name'
p419
aS'namely'
p420
aS'nd'
p421
aS'near'
p422
aS'nearly'
p423
aS'necessary'
p424
aS'need'
p425
aS'needs'
p426
aS'neither'
p427
aS'never'
p428
aS'nevertheless'
p429
aS'new'
p430
aS'next'
p431
aS'nine'
p432
aS'no'
p433
aS'nobody'
p434
aS'non'
p435
aS'none'
p436
aS'noone'
p437
aS'nor'
p438
aS'normally'
p439
aS'not'
p440
aS'nothing'
p441
aS'novel'
p442
aS'now'
p443
aS'nowhere'
p444
aS'o'
p445
aS'obviously'
p446
aS'of'
p447
aS'off'
p448
aS'often'
p449
aS'oh'
p450
aS'ok'
p451
aS'okay'
p452
aS'old'
p453
aS'on'
p454
aS'once'
p455
aS'one'
p456
aS'ones'
p457
aS'only'
p458
aS'onto'
p459
aS'or'
p460
aS'other'
p461
aS'others'
p462
aS'otherwise'
p463
aS'ought'
p464
aS'our'
p465
aS'ours'
p466
aS'ourselves'
p467
aS'out'
p468
aS'outside'
p469
aS'over'
p470
aS'overall'
p471
aS'own'
p472
aS'p'
p473
aS'particular'
p474
aS'particularly'
p475
aS'per'
p476
aS'perhaps'
p477
aS'placed'
p478
aS'please'
p479
aS'plus'
p480
aS'possible'
p481
aS'presumably'
p482
aS'probably'
p483
aS'provides'
p484
aS'q'
p485
aS'que'
p486
aS'quite'
p487
aS'qv'
p488
aS'r'
p489
aS'rather'
p490
aS'rd'
p491
aS're'
p492
aS'really'
p493
aS'reasonably'
p494
aS'regarding'
p495
aS'regardless'
p496
aS'regards'
p497
aS'relatively'
p498
aS'respectively'
p499
aS'right'
p500
aS's'
p501
aS'said'
p502
aS'same'
p503
aS'saw'
p504
aS'say'
p505
aS'saying'
p506
aS'says'
p507
aS'second'
p508
aS'secondly'
p509
aS'see'
p510
aS'seeing'
p511
aS'seem'
p512
aS'seemed'
p513
aS'seeming'
p514
aS'seems'
p515
aS'seen'
p516
aS'self'
p517
aS'selves'
p518
aS'sensible'
p519
aS'sent'
p520
aS'serious'
p521
aS'seriously'
p522
aS'seven'
p523
aS'several'
p524
aS'shall'
p525
aS'she'
p526
aS'should'
p527
aS"shouldn't"
p528
aS'since'
p529
aS'six'
p530
aS'so'
p531
aS'some'
p532
aS'somebody'
p533
aS'somehow'
p534
aS'someone'
p535
aS'something'
p536
aS'sometime'
p537
aS'sometimes'
p538
aS'somewhat'
p539
aS'somewhere'
p540
aS'soon'
p541
aS'sorry'
p542
aS'specified'
p543
aS'specify'
p544
aS'specifying'
p545
aS'still'
p546
aS'sub'
p547
aS'such'
p548
aS'sup'
p549
aS'sure'
p550
aS't'
p551
aS"t's"
p552
aS'take'
p553
aS'taken'
p554
aS'tell'
p555
aS'tends'
p556
aS'th'
p557
aS'than'
p558
aS'thank'
p559
aS'thanks'
p560
aS'thanx'
p561
aS'that'
p562
aS"that's"
p563
aS'thats'
p564
aS'the'
p565
aS'their'
p566
aS'theirs'
p567
aS'them'
p568
aS'themselves'
p569
aS'then'
p570
aS'thence'
p571
aS'there'
p572
aS"there's"
p573
aS'thereafter'
p574
aS'thereby'
p575
aS'therefore'
p576
aS'therein'
p577
aS'theres'
p578
aS'thereupon'
p579
aS'these'
p580
aS'they'
p581
aS"they'd"
p582
aS"they'll"
p583
aS"they're"
p584
aS"they've"
p585
aS'think'
p586
aS'third'
p587
aS'this'
p588
aS'thorough'
p589
aS'thoroughly'
p590
aS'those'
p591
aS'though'
p592
aS'three'
p593
aS'through'
p594
aS'throughout'
p595
aS'thru'
p596
aS'thus'
p597
aS'to'
p598
aS'together'
p599
aS'too'
p600
aS'took'
p601
aS'toward'
p602
aS'towards'
p603
aS'tried'
p604
aS'tries'
p605
aS'truly'
p606
aS'try'
p607
aS'trying'
p608
aS'twice'
p609
aS'two'
p610
aS'u'
p611
aS'un'
p612
aS'under'
p613
aS'unfortunately'
p614
aS'unless'
p615
aS'unlikely'
p616
aS'until'
p617
aS'unto'
p618
aS'up'
p619
aS'upon'
p620
aS'us'
p621
aS'use'
p622
aS'used'
p623
aS'useful'
p624
aS'uses'
p625
aS'using'
p626
aS'usually'
p627
aS'uucp'
p628
aS'v'
p629
aS'value'
p630
aS'various'
p631
aS'very'
p632
aS'via'
p633
aS'viz'
p634
aS'vs'
p635
aS'w'
p636
aS'want'
p637
aS'wants'
p638
aS'was'
p639
aS"wasn't"
p640
aS'way'
p641
aS'we'
p642
aS"we'd"
p643
aS"we'll"
p644
aS"we're"
p645
aS"we've"
p646
aS'welcome'
p647
aS'well'
p648
aS'went'
p649
aS'were'
p650
aS"weren't"
p651
aS'what'
p652
aS"what's"
p653
aS'whatever'
p654
aS'when'
p655
aS'whence'
p656
aS'whenever'
p657
aS'where'
p658
aS"where's"
p659
aS'whereafter'
p660
aS'whereas'
p661
aS'whereby'
p662
aS'wherein'
p663
aS'whereupon'
p664
aS'wherever'
p665
aS'whether'
p666
aS'which'
p667
aS'while'
p668
aS'whither'
p669
aS'who'
p670
aS"who's"
p671
aS'whoever'
p672
aS'whole'
p673
aS'whom'
p674
aS'whose'
p675
aS'why'
p676
aS'will'
p677
aS'willing'
p678
aS'wish'
p679
aS'with'
p680
aS'within'
p681
aS'without'
p682
aS"won't"
p683
aS'wonder'
p684
aS'would'
p685
aS'would'
p686
aS"wouldn't"
p687
aS'x'
p688
aS'y'
p689
aS'yes'
p690
aS'yet'
p691
aS'you'
p692
aS"you'd"
p693
aS"you'll"
p694
aS"you're"
p695
aS"you've"
p696
aS'your'
p697
aS'yours'
p698
aS'yourself'
p699
aS'yourselves'
p700
aS'z'
p701
aS'zero'
p702
asS'words'
p703
(lp704
g6
ag13
ag12
ag23
ag25
ag16
ag11
ag21
ag14
ag8
ag7
ag19
ag15
ag17
ag20
ag22
ag18
asS'u_out'
p705
(iagent_io
OutputToFile
p706
(dp707
S'point_fn'
p708
S'/u/jesse/public_html/ispy/communications/5002.point.out'
p709
sS'uid'
p710
S'5002'
p711
sS'say_fn'
p712
S'/u/jesse/public_html/ispy/communications/5002.say.out'
p713
sbsS'predicates'
p714
(lp715
g6
ag13
ag12
ag23
ag25
ag16
ag11
ag21
ag14
ag8
ag7
ag19
ag15
ag17
ag20
ag22
ag18
ag24
ag10
ag9
asS'alpha'
p716
F0.9
sS'words_to_predicates'
p717
(dp718
g6
(lp719
g6
ag10
ag9
asg7
(lp720
g7
asg8
(lp721
g8
asg11
(lp722
g11
asg13
(lp723
g13
ag24
asg12
(lp724
g12
asg14
(lp725
g14
asg15
(lp726
g15
asg16
(lp727
g16
asg17
(lp728
g17
asg18
(lp729
g18
asg19
(lp730
g19
ag24
asg20
(lp731
g20
asg21
(lp732
g21
asg22
(lp733
g22
asg23
(lp734
g23
asg25
(lp735
g25
assb.