(iIspyAgent
IspyAgent
p0
(dp1
S'classifier_data_modified'
p2
(dp3
I32
I00
sI33
I00
sI34
I00
sI35
I01
sI43
I01
sI44
I01
sI45
I01
sI46
I01
sI16
I00
sI17
I00
sI19
I00
sI21
I00
sI23
I01
sI24
I00
sI25
I00
sI26
I01
sI27
I00
sI28
I00
sI29
I00
sI30
I00
sI31
I00
ssS'predicate_to_classifier_map'
p4
(dp5
S'heavy'
p6
I33
sS'ridged'
p7
I19
sS'handle'
p8
I32
sS'heavy_2'
p9
I45
sS'heavy_1'
p10
I44
sS'cup'
p11
I29
sS'cannister'
p12
I35
sS'object'
p13
I46
sS'metal'
p14
I34
sS'mug'
p15
I31
sS'yellow'
p16
I23
sS'plastic'
p17
I28
sS'water'
p18
I24
sS'tin'
p19
I17
sS'can'
p20
I21
sS'bottle'
p21
I25
sS'pewter'
p22
I30
sS'small'
p23
I16
sS'tall'
p24
I26
sS'metal+can'
p25
I43
sS'red'
p26
I27
ssS'predicate_active'
p27
(dp28
g6
I00
sg7
I01
sg8
I01
sg9
I01
sg10
I01
sg11
I01
sg12
I01
sg13
I01
sg14
I00
sg15
I01
sg16
I01
sg17
I01
sg18
I01
sg19
I01
sg20
I00
sg21
I01
sg22
I01
sg23
I01
sg24
I01
sg25
I01
sg26
I01
ssS'predicate_examples'
p29
(dp30
g6
(lp31
(lp32
I11
aI01
aa(lp33
I7
aI00
aasg7
(lp34
(lp35
I4
aI01
aa(lp36
I7
aI00
aasg8
(lp37
(lp38
I0
aI01
aa(lp39
I4
aI00
aasg9
(lp40
(lp41
I7
aI00
aa(lp42
I11
aI00
aa(lp43
I11
aI01
aasg10
(lp44
(lp45
I7
aI01
aa(lp46
I11
aI01
aa(lp47
I11
aI01
aasg11
(lp48
(lp49
I7
aI01
aa(lp50
I3
aI00
aasg12
(lp51
(lp52
I11
aI01
aa(lp53
I7
aI00
aa(lp54
I4
aI01
aasg13
(lp55
(lp56
I11
aI01
aasg14
(lp57
(lp58
I11
aI01
aa(lp59
I7
aI00
aa(lp60
I4
aI01
aa(lp61
I7
aI00
aasg15
(lp62
(lp63
I0
aI01
aa(lp64
I4
aI00
aasg16
(lp65
(lp66
I3
aI01
aa(lp67
I4
aI00
aa(lp68
I4
aI00
aasg17
(lp69
(lp70
I7
aI01
aa(lp71
I3
aI01
aasg18
(lp72
(lp73
I3
aI01
aa(lp74
I4
aI00
aasg19
(lp75
(lp76
I4
aI01
aa(lp77
I11
aI01
aasg20
(lp78
(lp79
I4
aI01
aa(lp80
I7
aI00
aa(lp81
I4
aI01
aa(lp82
I11
aI01
aasg21
(lp83
(lp84
I3
aI01
aa(lp85
I4
aI00
aasg22
(lp86
(lp87
I0
aI01
aa(lp88
I4
aI01
aasg23
(lp89
(lp90
I4
aI01
aa(lp91
I11
aI01
aasg24
(lp92
(lp93
I7
aI01
aa(lp94
I3
aI01
aa(lp95
I4
aI00
aasg25
(lp96
g58
ag59
ag60
ag61
ag79
ag80
ag81
ag82
a(lp97
I11
aI01
aasg26
(lp98
(lp99
I7
aI01
aa(lp100
I3
aI00
aassS'predicates_to_words'
p101
(dp102
g6
(lp103
g6
asg7
(lp104
g7
asg8
(lp105
g8
asg9
(lp106
g6
asg10
(lp107
g6
asg11
(lp108
g11
asg12
(lp109
g12
asg13
(lp110
g13
asg14
(lp111
g14
asg15
(lp112
g15
asg16
(lp113
g16
asg17
(lp114
g17
asg18
(lp115
g18
asg19
(lp116
g19
asg20
(lp117
g20
asg21
(lp118
g21
asg22
(lp119
g22
asg23
(lp120
g23
asg24
(lp121
g24
asg25
(lp122
g14
ag20
asg26
(lp123
g26
assS'classifier_to_predicate_map'
p124
(dp125
I32
g8
sI33
g6
sI34
g14
sI35
g12
sI43
g25
sI44
g10
sI45
g9
sI46
g13
sI16
g23
sI17
g19
sI19
g7
sI21
g20
sI23
g16
sI24
g18
sI25
g21
sI26
g24
sI27
g26
sI28
g17
sI29
g11
sI30
g22
sI31
g15
ssS'object_IDs'
p126
(lp127
I11
aI0
aI3
aI4
aI7
asS'simulation'
p128
I01
sS'u_in'
p129
(iagent_io
InputFromFile
p130
(dp131
S'get_fn'
p132
S'/u/jesse/public_html/ispy/communications/5003.get.in'
p133
sS'guess_fn'
p134
S'/u/jesse/public_html/ispy/communications/5003.guess.in'
p135
sbsS'stopwords'
p136
(lp137
S'a'
p138
aS"a's"
p139
aS'able'
p140
aS'about'
p141
aS'above'
p142
aS'according'
p143
aS'accordingly'
p144
aS'across'
p145
aS'actually'
p146
aS'after'
p147
aS'afterwards'
p148
aS'again'
p149
aS'against'
p150
aS"ain't"
p151
aS'all'
p152
aS'allow'
p153
aS'allows'
p154
aS'almost'
p155
aS'alone'
p156
aS'along'
p157
aS'already'
p158
aS'also'
p159
aS'although'
p160
aS'always'
p161
aS'am'
p162
aS'among'
p163
aS'amongst'
p164
aS'an'
p165
aS'and'
p166
aS'another'
p167
aS'any'
p168
aS'anybody'
p169
aS'anyhow'
p170
aS'anyone'
p171
aS'anything'
p172
aS'anyway'
p173
aS'anyways'
p174
aS'anywhere'
p175
aS'apart'
p176
aS'appear'
p177
aS'appreciate'
p178
aS'appropriate'
p179
aS'are'
p180
aS"aren't"
p181
aS'around'
p182
aS'as'
p183
aS'aside'
p184
aS'ask'
p185
aS'asking'
p186
aS'associated'
p187
aS'at'
p188
aS'available'
p189
aS'away'
p190
aS'awfully'
p191
aS'b'
p192
aS'be'
p193
aS'became'
p194
aS'because'
p195
aS'become'
p196
aS'becomes'
p197
aS'becoming'
p198
aS'been'
p199
aS'before'
p200
aS'beforehand'
p201
aS'behind'
p202
aS'being'
p203
aS'believe'
p204
aS'below'
p205
aS'beside'
p206
aS'besides'
p207
aS'best'
p208
aS'better'
p209
aS'between'
p210
aS'beyond'
p211
aS'both'
p212
aS'brief'
p213
aS'but'
p214
aS'by'
p215
aS'c'
p216
aS"c'mon"
p217
aS"c's"
p218
aS'came'
p219
aS"can't"
p220
aS'cannot'
p221
aS'cant'
p222
aS'cause'
p223
aS'causes'
p224
aS'certain'
p225
aS'certainly'
p226
aS'changes'
p227
aS'clearly'
p228
aS'co'
p229
aS'com'
p230
aS'come'
p231
aS'comes'
p232
aS'concerning'
p233
aS'consequently'
p234
aS'consider'
p235
aS'considering'
p236
aS'contain'
p237
aS'containing'
p238
aS'contains'
p239
aS'corresponding'
p240
aS'could'
p241
aS"couldn't"
p242
aS'course'
p243
aS'currently'
p244
aS'd'
p245
aS'definitely'
p246
aS'described'
p247
aS'despite'
p248
aS'did'
p249
aS"didn't"
p250
aS'different'
p251
aS'do'
p252
aS'does'
p253
aS"doesn't"
p254
aS'doing'
p255
aS"don't"
p256
aS'done'
p257
aS'down'
p258
aS'downwards'
p259
aS'during'
p260
aS'e'
p261
aS'each'
p262
aS'edu'
p263
aS'eg'
p264
aS'eight'
p265
aS'either'
p266
aS'else'
p267
aS'elsewhere'
p268
aS'enough'
p269
aS'entirely'
p270
aS'especially'
p271
aS'et'
p272
aS'etc'
p273
aS'even'
p274
aS'ever'
p275
aS'every'
p276
aS'everybody'
p277
aS'everyone'
p278
aS'everything'
p279
aS'everywhere'
p280
aS'ex'
p281
aS'exactly'
p282
aS'example'
p283
aS'except'
p284
aS'f'
p285
aS'far'
p286
aS'few'
p287
aS'fifth'
p288
aS'first'
p289
aS'five'
p290
aS'followed'
p291
aS'following'
p292
aS'follows'
p293
aS'for'
p294
aS'former'
p295
aS'formerly'
p296
aS'forth'
p297
aS'four'
p298
aS'from'
p299
aS'further'
p300
aS'furthermore'
p301
aS'g'
p302
aS'get'
p303
aS'gets'
p304
aS'getting'
p305
aS'given'
p306
aS'gives'
p307
aS'go'
p308
aS'goes'
p309
aS'going'
p310
aS'gone'
p311
aS'got'
p312
aS'gotten'
p313
aS'greetings'
p314
aS'h'
p315
aS'had'
p316
aS"hadn't"
p317
aS'happens'
p318
aS'hardly'
p319
aS'has'
p320
aS"hasn't"
p321
aS'have'
p322
aS"haven't"
p323
aS'having'
p324
aS'he'
p325
aS"he's"
p326
aS'hello'
p327
aS'help'
p328
aS'hence'
p329
aS'her'
p330
aS'here'
p331
aS"here's"
p332
aS'hereafter'
p333
aS'hereby'
p334
aS'herein'
p335
aS'hereupon'
p336
aS'hers'
p337
aS'herself'
p338
aS'hi'
p339
aS'him'
p340
aS'himself'
p341
aS'his'
p342
aS'hither'
p343
aS'hopefully'
p344
aS'how'
p345
aS'howbeit'
p346
aS'however'
p347
aS'i'
p348
aS"i'd"
p349
aS"i'll"
p350
aS"i'm"
p351
aS"i've"
p352
aS'ie'
p353
aS'if'
p354
aS'ignored'
p355
aS'immediate'
p356
aS'in'
p357
aS'inasmuch'
p358
aS'inc'
p359
aS'indeed'
p360
aS'indicate'
p361
aS'indicated'
p362
aS'indicates'
p363
aS'inner'
p364
aS'insofar'
p365
aS'instead'
p366
aS'into'
p367
aS'inward'
p368
aS'is'
p369
aS"isn't"
p370
aS'it'
p371
aS"it'd"
p372
aS"it'll"
p373
aS"it's"
p374
aS'its'
p375
aS'itself'
p376
aS'j'
p377
aS'just'
p378
aS'k'
p379
aS'keep'
p380
aS'keeps'
p381
aS'kept'
p382
aS'know'
p383
aS'knows'
p384
aS'known'
p385
aS'l'
p386
aS'last'
p387
aS'lately'
p388
aS'later'
p389
aS'latter'
p390
aS'latterly'
p391
aS'least'
p392
aS'less'
p393
aS'lest'
p394
aS'let'
p395
aS"let's"
p396
aS'like'
p397
aS'liked'
p398
aS'likely'
p399
aS'little'
p400
aS'look'
p401
aS'looking'
p402
aS'looks'
p403
aS'ltd'
p404
aS'm'
p405
aS'mainly'
p406
aS'many'
p407
aS'may'
p408
aS'maybe'
p409
aS'me'
p410
aS'mean'
p411
aS'meanwhile'
p412
aS'merely'
p413
aS'might'
p414
aS'more'
p415
aS'moreover'
p416
aS'most'
p417
aS'mostly'
p418
aS'much'
p419
aS'must'
p420
aS'my'
p421
aS'myself'
p422
aS'n'
p423
aS'name'
p424
aS'namely'
p425
aS'nd'
p426
aS'near'
p427
aS'nearly'
p428
aS'necessary'
p429
aS'need'
p430
aS'needs'
p431
aS'neither'
p432
aS'never'
p433
aS'nevertheless'
p434
aS'new'
p435
aS'next'
p436
aS'nine'
p437
aS'no'
p438
aS'nobody'
p439
aS'non'
p440
aS'none'
p441
aS'noone'
p442
aS'nor'
p443
aS'normally'
p444
aS'not'
p445
aS'nothing'
p446
aS'novel'
p447
aS'now'
p448
aS'nowhere'
p449
aS'o'
p450
aS'obviously'
p451
aS'of'
p452
aS'off'
p453
aS'often'
p454
aS'oh'
p455
aS'ok'
p456
aS'okay'
p457
aS'old'
p458
aS'on'
p459
aS'once'
p460
aS'one'
p461
aS'ones'
p462
aS'only'
p463
aS'onto'
p464
aS'or'
p465
aS'other'
p466
aS'others'
p467
aS'otherwise'
p468
aS'ought'
p469
aS'our'
p470
aS'ours'
p471
aS'ourselves'
p472
aS'out'
p473
aS'outside'
p474
aS'over'
p475
aS'overall'
p476
aS'own'
p477
aS'p'
p478
aS'particular'
p479
aS'particularly'
p480
aS'per'
p481
aS'perhaps'
p482
aS'placed'
p483
aS'please'
p484
aS'plus'
p485
aS'possible'
p486
aS'presumably'
p487
aS'probably'
p488
aS'provides'
p489
aS'q'
p490
aS'que'
p491
aS'quite'
p492
aS'qv'
p493
aS'r'
p494
aS'rather'
p495
aS'rd'
p496
aS're'
p497
aS'really'
p498
aS'reasonably'
p499
aS'regarding'
p500
aS'regardless'
p501
aS'regards'
p502
aS'relatively'
p503
aS'respectively'
p504
aS'right'
p505
aS's'
p506
aS'said'
p507
aS'same'
p508
aS'saw'
p509
aS'say'
p510
aS'saying'
p511
aS'says'
p512
aS'second'
p513
aS'secondly'
p514
aS'see'
p515
aS'seeing'
p516
aS'seem'
p517
aS'seemed'
p518
aS'seeming'
p519
aS'seems'
p520
aS'seen'
p521
aS'self'
p522
aS'selves'
p523
aS'sensible'
p524
aS'sent'
p525
aS'serious'
p526
aS'seriously'
p527
aS'seven'
p528
aS'several'
p529
aS'shall'
p530
aS'she'
p531
aS'should'
p532
aS"shouldn't"
p533
aS'since'
p534
aS'six'
p535
aS'so'
p536
aS'some'
p537
aS'somebody'
p538
aS'somehow'
p539
aS'someone'
p540
aS'something'
p541
aS'sometime'
p542
aS'sometimes'
p543
aS'somewhat'
p544
aS'somewhere'
p545
aS'soon'
p546
aS'sorry'
p547
aS'specified'
p548
aS'specify'
p549
aS'specifying'
p550
aS'still'
p551
aS'sub'
p552
aS'such'
p553
aS'sup'
p554
aS'sure'
p555
aS't'
p556
aS"t's"
p557
aS'take'
p558
aS'taken'
p559
aS'tell'
p560
aS'tends'
p561
aS'th'
p562
aS'than'
p563
aS'thank'
p564
aS'thanks'
p565
aS'thanx'
p566
aS'that'
p567
aS"that's"
p568
aS'thats'
p569
aS'the'
p570
aS'their'
p571
aS'theirs'
p572
aS'them'
p573
aS'themselves'
p574
aS'then'
p575
aS'thence'
p576
aS'there'
p577
aS"there's"
p578
aS'thereafter'
p579
aS'thereby'
p580
aS'therefore'
p581
aS'therein'
p582
aS'theres'
p583
aS'thereupon'
p584
aS'these'
p585
aS'they'
p586
aS"they'd"
p587
aS"they'll"
p588
aS"they're"
p589
aS"they've"
p590
aS'think'
p591
aS'third'
p592
aS'this'
p593
aS'thorough'
p594
aS'thoroughly'
p595
aS'those'
p596
aS'though'
p597
aS'three'
p598
aS'through'
p599
aS'throughout'
p600
aS'thru'
p601
aS'thus'
p602
aS'to'
p603
aS'together'
p604
aS'too'
p605
aS'took'
p606
aS'toward'
p607
aS'towards'
p608
aS'tried'
p609
aS'tries'
p610
aS'truly'
p611
aS'try'
p612
aS'trying'
p613
aS'twice'
p614
aS'two'
p615
aS'u'
p616
aS'un'
p617
aS'under'
p618
aS'unfortunately'
p619
aS'unless'
p620
aS'unlikely'
p621
aS'until'
p622
aS'unto'
p623
aS'up'
p624
aS'upon'
p625
aS'us'
p626
aS'use'
p627
aS'used'
p628
aS'useful'
p629
aS'uses'
p630
aS'using'
p631
aS'usually'
p632
aS'uucp'
p633
aS'v'
p634
aS'value'
p635
aS'various'
p636
aS'very'
p637
aS'via'
p638
aS'viz'
p639
aS'vs'
p640
aS'w'
p641
aS'want'
p642
aS'wants'
p643
aS'was'
p644
aS"wasn't"
p645
aS'way'
p646
aS'we'
p647
aS"we'd"
p648
aS"we'll"
p649
aS"we're"
p650
aS"we've"
p651
aS'welcome'
p652
aS'well'
p653
aS'went'
p654
aS'were'
p655
aS"weren't"
p656
aS'what'
p657
aS"what's"
p658
aS'whatever'
p659
aS'when'
p660
aS'whence'
p661
aS'whenever'
p662
aS'where'
p663
aS"where's"
p664
aS'whereafter'
p665
aS'whereas'
p666
aS'whereby'
p667
aS'wherein'
p668
aS'whereupon'
p669
aS'wherever'
p670
aS'whether'
p671
aS'which'
p672
aS'while'
p673
aS'whither'
p674
aS'who'
p675
aS"who's"
p676
aS'whoever'
p677
aS'whole'
p678
aS'whom'
p679
aS'whose'
p680
aS'why'
p681
aS'will'
p682
aS'willing'
p683
aS'wish'
p684
aS'with'
p685
aS'within'
p686
aS'without'
p687
aS"won't"
p688
aS'wonder'
p689
aS'would'
p690
aS'would'
p691
aS"wouldn't"
p692
aS'x'
p693
aS'y'
p694
aS'yes'
p695
aS'yet'
p696
aS'you'
p697
aS"you'd"
p698
aS"you'll"
p699
aS"you're"
p700
aS"you've"
p701
aS'your'
p702
aS'yours'
p703
aS'yourself'
p704
aS'yourselves'
p705
aS'z'
p706
aS'zero'
p707
asS'words'
p708
(lp709
g6
ag14
ag12
ag24
ag26
ag17
ag11
ag22
ag15
ag8
ag7
ag20
ag16
ag18
ag21
ag23
ag19
ag13
asS'u_out'
p710
(iagent_io
OutputToFile
p711
(dp712
S'point_fn'
p713
S'/u/jesse/public_html/ispy/communications/5003.point.out'
p714
sS'uid'
p715
S'5003'
p716
sS'say_fn'
p717
S'/u/jesse/public_html/ispy/communications/5003.say.out'
p718
sbsS'predicates'
p719
(lp720
g6
ag14
ag12
ag24
ag26
ag17
ag11
ag22
ag15
ag8
ag7
ag20
ag16
ag18
ag21
ag23
ag19
ag25
ag10
ag9
ag13
asS'alpha'
p721
F0.9
sS'words_to_predicates'
p722
(dp723
g6
(lp724
g6
ag10
ag9
asg7
(lp725
g7
asg8
(lp726
g8
asg11
(lp727
g11
asg14
(lp728
g14
ag25
asg13
(lp729
g13
asg12
(lp730
g12
asg15
(lp731
g15
asg16
(lp732
g16
asg17
(lp733
g17
asg18
(lp734
g18
asg19
(lp735
g19
asg20
(lp736
g20
ag25
asg21
(lp737
g21
asg22
(lp738
g22
asg23
(lp739
g23
asg24
(lp740
g24
asg26
(lp741
g26
assb.