(iIspyAgent
IspyAgent
p0
(dp1
S'classifier_data_modified'
p2
(dp3
I16
I00
sI17
I00
sI19
I00
sI23
I00
sI25
I00
sI26
I00
sI27
I00
sI28
I00
sI29
I00
sI30
I00
sI31
I00
sI32
I00
sI35
I00
sI43
I00
sI44
I00
sI45
I00
sI46
I00
sI47
I00
sI48
I00
sI49
I00
sI50
I00
sI51
I00
ssS'predicate_to_classifier_map'
p4
(dp5
S'heavy'
p6
I33
sS'heavy_2'
p7
I45
sS'heavy_1'
p8
I44
sS'yellow'
p9
I23
sS'metal+can'
p10
I43
sS'handle+heavy_2'
p11
I47
sS'cup'
p12
I29
sS'yellow+bottle'
p13
I48
sS'mug'
p14
I31
sS'plastic'
p15
I28
sS'tin'
p16
I17
sS'red'
p17
I27
sS'ridged'
p18
I19
sS'handle'
p19
I32
sS'mug+handle+heavy_2'
p20
I49
sS'cannister_2'
p21
I51
sS'cannister_1'
p22
I50
sS'object'
p23
I46
sS'cannister'
p24
I35
sS'water'
p25
I24
sS'metal'
p26
I34
sS'can'
p27
I21
sS'bottle'
p28
I25
sS'pewter'
p29
I30
sS'small'
p30
I16
sS'tall'
p31
I26
ssS'predicate_active'
p32
(dp33
g6
I00
sg7
I00
sg8
I01
sg9
I00
sg10
I01
sg11
I00
sg12
I01
sg13
I01
sg16
I01
sg15
I01
sg14
I00
sg17
I01
sg18
I01
sg19
I00
sg20
I01
sg21
I01
sg22
I01
sg23
I01
sg24
I00
sg25
I01
sg26
I00
sg27
I00
sg28
I00
sg29
I01
sg30
I01
sg31
I01
ssS'predicate_examples'
p34
(dp35
g6
(lp36
(lp37
I11
aI01
aa(lp38
I7
aI00
aa(lp39
I11
aI01
aa(lp40
I7
aI00
aa(lp41
I11
aI01
aa(lp42
I7
aI00
aa(lp43
I11
aI01
aa(lp44
I7
aI00
aa(lp45
I11
aI01
aa(lp46
I7
aI00
aa(lp47
I11
aI01
aa(lp48
I7
aI00
aasg7
(lp49
(lp50
I7
aI00
aa(lp51
I11
aI00
aa(lp52
I0
aI01
aa(lp53
I3
aI00
aa(lp54
I7
aI00
aa(lp55
I11
aI00
aa(lp56
I0
aI01
aa(lp57
I7
aI00
aa(lp58
I11
aI00
aa(lp59
I7
aI00
aa(lp60
I11
aI00
aa(lp61
I11
aI01
aa(lp62
I7
aI00
aa(lp63
I11
aI00
aa(lp64
I7
aI00
aa(lp65
I11
aI00
aasg8
(lp66
(lp67
I7
aI01
aa(lp68
I11
aI01
aa(lp69
I0
aI01
aa(lp70
I7
aI01
aa(lp71
I11
aI01
aa(lp72
I7
aI01
aa(lp73
I11
aI01
aa(lp74
I7
aI01
aa(lp75
I11
aI01
aa(lp76
I11
aI01
aa(lp77
I7
aI01
aa(lp78
I11
aI01
aa(lp79
I7
aI01
aa(lp80
I11
aI01
aa(lp81
I11
aI01
aasg9
(lp82
(lp83
I3
aI01
aa(lp84
I4
aI00
aa(lp85
I3
aI01
aa(lp86
I4
aI00
aa(lp87
I3
aI01
aa(lp88
I4
aI00
aa(lp89
I3
aI01
aa(lp90
I4
aI00
aa(lp91
I4
aI00
aa(lp92
I3
aI01
aa(lp93
I4
aI00
aa(lp94
I3
aI01
aa(lp95
I4
aI00
aasg10
(lp96
(lp97
I11
aI01
aa(lp98
I7
aI00
aa(lp99
I4
aI01
aa(lp100
I7
aI00
aa(lp101
I4
aI01
aa(lp102
I7
aI00
aa(lp103
I4
aI01
aa(lp104
I11
aI01
aa(lp105
I11
aI01
aa(lp106
I7
aI00
aa(lp107
I4
aI01
aa(lp108
I7
aI00
aa(lp109
I4
aI01
aa(lp110
I7
aI00
aa(lp111
I4
aI01
aa(lp112
I11
aI01
aa(lp113
I11
aI01
aa(lp114
I7
aI00
aa(lp115
I4
aI01
aa(lp116
I7
aI00
aa(lp117
I4
aI01
aa(lp118
I7
aI00
aa(lp119
I4
aI01
aa(lp120
I11
aI01
aa(lp121
I11
aI01
aa(lp122
I11
aI01
aa(lp123
I11
aI01
aa(lp124
I7
aI00
aa(lp125
I4
aI01
aa(lp126
I7
aI00
aa(lp127
I4
aI01
aa(lp128
I7
aI00
aa(lp129
I4
aI01
aa(lp130
I11
aI01
aa(lp131
I11
aI01
aa(lp132
I11
aI01
aa(lp133
I7
aI00
aa(lp134
I4
aI01
aa(lp135
I7
aI00
aa(lp136
I4
aI01
aa(lp137
I7
aI00
aa(lp138
I4
aI01
aa(lp139
I11
aI01
aa(lp140
I11
aI01
aa(lp141
I7
aI00
aa(lp142
I4
aI01
aa(lp143
I7
aI00
aa(lp144
I4
aI01
aa(lp145
I7
aI00
aa(lp146
I4
aI01
aa(lp147
I11
aI01
aa(lp148
I11
aI01
aasg11
(lp149
(lp150
I0
aI01
aa(lp151
I4
aI00
aa(lp152
I0
aI01
aa(lp153
I4
aI00
aa(lp154
I0
aI01
aa(lp155
I4
aI00
aa(lp156
I7
aI00
aa(lp157
I0
aI01
aa(lp158
I4
aI00
aa(lp159
I0
aI01
aa(lp160
I4
aI00
aa(lp161
I0
aI01
aa(lp162
I0
aI01
aa(lp163
I4
aI00
aa(lp164
I0
aI01
aag50
ag51
ag52
ag53
ag54
ag55
ag56
ag57
ag58
ag59
ag60
ag61
ag62
ag63
ag64
ag65
asg12
(lp165
(lp166
I7
aI01
aa(lp167
I3
aI00
aa(lp168
I7
aI01
aa(lp169
I3
aI00
aa(lp170
I4
aI01
aa(lp171
I7
aI01
aa(lp172
I3
aI00
aa(lp173
I7
aI01
aa(lp174
I3
aI00
aa(lp175
I7
aI01
aa(lp176
I3
aI00
aa(lp177
I7
aI01
aa(lp178
I7
aI01
aa(lp179
I3
aI00
aasg13
(lp180
g83
ag84
ag85
ag86
ag87
ag88
ag89
ag90
ag91
ag92
ag93
ag94
ag95
a(lp181
I3
aI01
aa(lp182
I4
aI00
aa(lp183
I3
aI01
aa(lp184
I3
aI01
aa(lp185
I4
aI00
aa(lp186
I3
aI01
aa(lp187
I4
aI00
aa(lp188
I3
aI01
aa(lp189
I4
aI00
aa(lp190
I3
aI01
aa(lp191
I4
aI00
aa(lp192
I3
aI01
aa(lp193
I4
aI00
aasg14
(lp194
(lp195
I0
aI01
aa(lp196
I4
aI00
aa(lp197
I0
aI01
aa(lp198
I0
aI01
aa(lp199
I4
aI00
aa(lp200
I0
aI01
aa(lp201
I4
aI00
aa(lp202
I0
aI01
aa(lp203
I4
aI00
aa(lp204
I0
aI01
aa(lp205
I4
aI00
aa(lp206
I0
aI01
aa(lp207
I4
aI00
aa(lp208
I0
aI01
aasg15
(lp209
(lp210
I7
aI01
aa(lp211
I3
aI01
aa(lp212
I7
aI01
aa(lp213
I3
aI01
aa(lp214
I7
aI01
aa(lp215
I3
aI01
aa(lp216
I7
aI01
aa(lp217
I3
aI01
aa(lp218
I7
aI01
aa(lp219
I3
aI01
aa(lp220
I7
aI01
aa(lp221
I0
aI00
aa(lp222
I7
aI01
aa(lp223
I3
aI01
aasg16
(lp224
(lp225
I4
aI01
aa(lp226
I11
aI01
aa(lp227
I4
aI01
aa(lp228
I11
aI01
aa(lp229
I4
aI01
aa(lp230
I4
aI01
aa(lp231
I11
aI01
aa(lp232
I4
aI01
aa(lp233
I11
aI01
aa(lp234
I4
aI01
aa(lp235
I11
aI01
aa(lp236
I4
aI01
aa(lp237
I11
aI01
aasg17
(lp238
(lp239
I7
aI01
aa(lp240
I3
aI00
aa(lp241
I7
aI01
aa(lp242
I3
aI00
aa(lp243
I0
aI00
aa(lp244
I7
aI01
aa(lp245
I3
aI00
aa(lp246
I7
aI01
aa(lp247
I7
aI01
aa(lp248
I3
aI00
aa(lp249
I7
aI01
aa(lp250
I3
aI00
aa(lp251
I7
aI01
aa(lp252
I3
aI00
aasg18
(lp253
(lp254
I4
aI01
aa(lp255
I7
aI00
aa(lp256
I4
aI01
aa(lp257
I7
aI00
aa(lp258
I0
aI00
aa(lp259
I4
aI01
aa(lp260
I7
aI00
aa(lp261
I4
aI01
aa(lp262
I7
aI00
aa(lp263
I4
aI01
aa(lp264
I7
aI00
aa(lp265
I4
aI01
aa(lp266
I7
aI00
aasg19
(lp267
g150
ag151
ag152
ag153
ag154
ag155
ag156
ag157
ag158
ag159
ag160
ag161
ag162
ag163
ag164
asg20
(lp268
g195
ag196
ag197
ag198
ag199
ag200
ag201
ag202
ag203
ag204
ag205
ag206
ag207
ag208
ag150
ag151
ag152
ag153
ag154
ag155
ag156
ag157
ag158
ag159
ag160
ag161
ag162
ag163
ag164
ag50
ag51
ag52
ag53
ag54
ag55
ag56
ag57
ag58
ag59
ag60
ag61
ag62
ag63
ag64
ag65
asg21
(lp269
(lp270
I3
aI00
aa(lp271
I4
aI01
aa(lp272
I7
aI01
aa(lp273
I11
aI01
aasg22
(lp274
(lp275
I3
aI01
aa(lp276
I4
aI00
aa(lp277
I7
aI00
aa(lp278
I11
aI00
aasg23
(lp279
(lp280
I11
aI01
aasg24
(lp281
(lp282
I11
aI01
aa(lp283
I7
aI00
aa(lp284
I3
aI00
aa(lp285
I11
aI01
aa(lp286
I7
aI00
aa(lp287
I11
aI01
aa(lp288
I7
aI00
aa(lp289
I11
aI01
aa(lp290
I7
aI00
aa(lp291
I4
aI01
aa(lp292
I11
aI01
aa(lp293
I7
aI00
aa(lp294
I11
aI01
aa(lp295
I7
aI00
aasg25
(lp296
(lp297
I3
aI01
aa(lp298
I4
aI00
aa(lp299
I3
aI01
aa(lp300
I4
aI00
aa(lp301
I3
aI01
aa(lp302
I4
aI00
aa(lp303
I3
aI01
aa(lp304
I4
aI00
aa(lp305
I3
aI01
aa(lp306
I4
aI00
aa(lp307
I3
aI01
aa(lp308
I4
aI00
aasg26
(lp309
g97
ag98
ag99
ag100
ag105
ag106
ag107
ag108
ag113
ag114
ag115
ag116
ag123
ag124
ag125
ag126
ag132
ag133
ag134
ag135
ag140
ag141
ag142
ag143
asg27
(lp310
g101
ag102
ag103
ag104
ag109
ag110
ag111
ag112
ag117
ag118
ag119
ag120
ag127
ag128
ag129
ag130
ag136
ag137
ag138
ag139
ag144
ag145
ag146
ag147
asg28
(lp311
g181
ag182
ag183
ag184
ag185
ag186
ag187
ag188
ag189
ag190
ag191
ag192
ag193
asg29
(lp312
(lp313
I0
aI01
aa(lp314
I4
aI01
aa(lp315
I0
aI01
aa(lp316
I0
aI01
aa(lp317
I4
aI01
aa(lp318
I0
aI01
aa(lp319
I4
aI01
aa(lp320
I7
aI00
aa(lp321
I0
aI01
aa(lp322
I4
aI01
aa(lp323
I0
aI01
aa(lp324
I4
aI01
aa(lp325
I0
aI01
aa(lp326
I4
aI01
aa(lp327
I11
aI01
aasg30
(lp328
(lp329
I4
aI01
aa(lp330
I11
aI01
aa(lp331
I4
aI01
aa(lp332
I11
aI01
aa(lp333
I4
aI01
aa(lp334
I4
aI01
aa(lp335
I11
aI01
aa(lp336
I4
aI01
aa(lp337
I11
aI01
aa(lp338
I4
aI01
aa(lp339
I11
aI01
aa(lp340
I4
aI01
aa(lp341
I11
aI01
aasg31
(lp342
(lp343
I7
aI01
aa(lp344
I3
aI01
aa(lp345
I7
aI01
aa(lp346
I3
aI01
aa(lp347
I7
aI01
aa(lp348
I3
aI01
aa(lp349
I7
aI01
aa(lp350
I3
aI01
aa(lp351
I4
aI00
aa(lp352
I7
aI01
aa(lp353
I3
aI01
aa(lp354
I0
aI00
aa(lp355
I7
aI01
aa(lp356
I3
aI01
aassS'predicates_to_words'
p357
(dp358
g6
(lp359
g6
asg7
(lp360
g6
asg8
(lp361
g6
asg9
(lp362
g9
asg10
(lp363
g26
ag27
asg11
(lp364
g6
ag19
asg12
(lp365
g12
asg13
(lp366
g9
ag28
asg14
(lp367
g14
asg15
(lp368
g15
asg16
(lp369
g16
asg17
(lp370
g17
asg18
(lp371
g18
asg19
(lp372
g19
asg20
(lp373
g6
ag14
ag19
asg21
(lp374
g24
asg22
(lp375
g24
asg23
(lp376
g23
asg24
(lp377
g24
asg25
(lp378
g25
asg26
(lp379
g26
asg27
(lp380
g27
asg28
(lp381
g28
asg29
(lp382
g29
asg30
(lp383
g30
asg31
(lp384
g31
assS'classifier_to_predicate_map'
p385
(dp386
I16
g30
sI17
g16
sI19
g18
sI21
g27
sI23
g9
sI24
g25
sI25
g28
sI26
g31
sI27
g17
sI28
g15
sI29
g12
sI30
g29
sI31
g14
sI32
g19
sI33
g6
sI34
g26
sI35
g24
sI43
g10
sI44
g8
sI45
g7
sI46
g23
sI47
g11
sI48
g13
sI49
g20
sI50
g22
sI51
g21
ssS'object_IDs'
p387
NsS'simulation'
p388
I00
sS'u_in'
p389
NsS'stopwords'
p390
(lp391
S'a'
p392
aS"a's"
p393
aS'able'
p394
aS'about'
p395
aS'above'
p396
aS'according'
p397
aS'accordingly'
p398
aS'across'
p399
aS'actually'
p400
aS'after'
p401
aS'afterwards'
p402
aS'again'
p403
aS'against'
p404
aS"ain't"
p405
aS'all'
p406
aS'allow'
p407
aS'allows'
p408
aS'almost'
p409
aS'alone'
p410
aS'along'
p411
aS'already'
p412
aS'also'
p413
aS'although'
p414
aS'always'
p415
aS'am'
p416
aS'among'
p417
aS'amongst'
p418
aS'an'
p419
aS'and'
p420
aS'another'
p421
aS'any'
p422
aS'anybody'
p423
aS'anyhow'
p424
aS'anyone'
p425
aS'anything'
p426
aS'anyway'
p427
aS'anyways'
p428
aS'anywhere'
p429
aS'apart'
p430
aS'appear'
p431
aS'appreciate'
p432
aS'appropriate'
p433
aS'are'
p434
aS"aren't"
p435
aS'around'
p436
aS'as'
p437
aS'aside'
p438
aS'ask'
p439
aS'asking'
p440
aS'associated'
p441
aS'at'
p442
aS'available'
p443
aS'away'
p444
aS'awfully'
p445
aS'b'
p446
aS'be'
p447
aS'became'
p448
aS'because'
p449
aS'become'
p450
aS'becomes'
p451
aS'becoming'
p452
aS'been'
p453
aS'before'
p454
aS'beforehand'
p455
aS'behind'
p456
aS'being'
p457
aS'believe'
p458
aS'below'
p459
aS'beside'
p460
aS'besides'
p461
aS'best'
p462
aS'better'
p463
aS'between'
p464
aS'beyond'
p465
aS'both'
p466
aS'brief'
p467
aS'but'
p468
aS'by'
p469
aS'c'
p470
aS"c'mon"
p471
aS"c's"
p472
aS'came'
p473
aS"can't"
p474
aS'cannot'
p475
aS'cant'
p476
aS'cause'
p477
aS'causes'
p478
aS'certain'
p479
aS'certainly'
p480
aS'changes'
p481
aS'clearly'
p482
aS'co'
p483
aS'com'
p484
aS'come'
p485
aS'comes'
p486
aS'concerning'
p487
aS'consequently'
p488
aS'consider'
p489
aS'considering'
p490
aS'contain'
p491
aS'containing'
p492
aS'contains'
p493
aS'corresponding'
p494
aS'could'
p495
aS"couldn't"
p496
aS'course'
p497
aS'currently'
p498
aS'd'
p499
aS'definitely'
p500
aS'described'
p501
aS'despite'
p502
aS'did'
p503
aS"didn't"
p504
aS'different'
p505
aS'do'
p506
aS'does'
p507
aS"doesn't"
p508
aS'doing'
p509
aS"don't"
p510
aS'done'
p511
aS'down'
p512
aS'downwards'
p513
aS'during'
p514
aS'e'
p515
aS'each'
p516
aS'edu'
p517
aS'eg'
p518
aS'eight'
p519
aS'either'
p520
aS'else'
p521
aS'elsewhere'
p522
aS'enough'
p523
aS'entirely'
p524
aS'especially'
p525
aS'et'
p526
aS'etc'
p527
aS'even'
p528
aS'ever'
p529
aS'every'
p530
aS'everybody'
p531
aS'everyone'
p532
aS'everything'
p533
aS'everywhere'
p534
aS'ex'
p535
aS'exactly'
p536
aS'example'
p537
aS'except'
p538
aS'f'
p539
aS'far'
p540
aS'few'
p541
aS'fifth'
p542
aS'first'
p543
aS'five'
p544
aS'followed'
p545
aS'following'
p546
aS'follows'
p547
aS'for'
p548
aS'former'
p549
aS'formerly'
p550
aS'forth'
p551
aS'four'
p552
aS'from'
p553
aS'further'
p554
aS'furthermore'
p555
aS'g'
p556
aS'get'
p557
aS'gets'
p558
aS'getting'
p559
aS'given'
p560
aS'gives'
p561
aS'go'
p562
aS'goes'
p563
aS'going'
p564
aS'gone'
p565
aS'got'
p566
aS'gotten'
p567
aS'greetings'
p568
aS'h'
p569
aS'had'
p570
aS"hadn't"
p571
aS'happens'
p572
aS'hardly'
p573
aS'has'
p574
aS"hasn't"
p575
aS'have'
p576
aS"haven't"
p577
aS'having'
p578
aS'he'
p579
aS"he's"
p580
aS'hello'
p581
aS'help'
p582
aS'hence'
p583
aS'her'
p584
aS'here'
p585
aS"here's"
p586
aS'hereafter'
p587
aS'hereby'
p588
aS'herein'
p589
aS'hereupon'
p590
aS'hers'
p591
aS'herself'
p592
aS'hi'
p593
aS'him'
p594
aS'himself'
p595
aS'his'
p596
aS'hither'
p597
aS'hopefully'
p598
aS'how'
p599
aS'howbeit'
p600
aS'however'
p601
aS'i'
p602
aS"i'd"
p603
aS"i'll"
p604
aS"i'm"
p605
aS"i've"
p606
aS'ie'
p607
aS'if'
p608
aS'ignored'
p609
aS'immediate'
p610
aS'in'
p611
aS'inasmuch'
p612
aS'inc'
p613
aS'indeed'
p614
aS'indicate'
p615
aS'indicated'
p616
aS'indicates'
p617
aS'inner'
p618
aS'insofar'
p619
aS'instead'
p620
aS'into'
p621
aS'inward'
p622
aS'is'
p623
aS"isn't"
p624
aS'it'
p625
aS"it'd"
p626
aS"it'll"
p627
aS"it's"
p628
aS'its'
p629
aS'itself'
p630
aS'j'
p631
aS'just'
p632
aS'k'
p633
aS'keep'
p634
aS'keeps'
p635
aS'kept'
p636
aS'know'
p637
aS'knows'
p638
aS'known'
p639
aS'l'
p640
aS'last'
p641
aS'lately'
p642
aS'later'
p643
aS'latter'
p644
aS'latterly'
p645
aS'least'
p646
aS'less'
p647
aS'lest'
p648
aS'let'
p649
aS"let's"
p650
aS'like'
p651
aS'liked'
p652
aS'likely'
p653
aS'little'
p654
aS'look'
p655
aS'looking'
p656
aS'looks'
p657
aS'ltd'
p658
aS'm'
p659
aS'mainly'
p660
aS'many'
p661
aS'may'
p662
aS'maybe'
p663
aS'me'
p664
aS'mean'
p665
aS'meanwhile'
p666
aS'merely'
p667
aS'might'
p668
aS'more'
p669
aS'moreover'
p670
aS'most'
p671
aS'mostly'
p672
aS'much'
p673
aS'must'
p674
aS'my'
p675
aS'myself'
p676
aS'n'
p677
aS'name'
p678
aS'namely'
p679
aS'nd'
p680
aS'near'
p681
aS'nearly'
p682
aS'necessary'
p683
aS'need'
p684
aS'needs'
p685
aS'neither'
p686
aS'never'
p687
aS'nevertheless'
p688
aS'new'
p689
aS'next'
p690
aS'nine'
p691
aS'no'
p692
aS'nobody'
p693
aS'non'
p694
aS'none'
p695
aS'noone'
p696
aS'nor'
p697
aS'normally'
p698
aS'not'
p699
aS'nothing'
p700
aS'novel'
p701
aS'now'
p702
aS'nowhere'
p703
aS'o'
p704
aS'obviously'
p705
aS'of'
p706
aS'off'
p707
aS'often'
p708
aS'oh'
p709
aS'ok'
p710
aS'okay'
p711
aS'old'
p712
aS'on'
p713
aS'once'
p714
aS'one'
p715
aS'ones'
p716
aS'only'
p717
aS'onto'
p718
aS'or'
p719
aS'other'
p720
aS'others'
p721
aS'otherwise'
p722
aS'ought'
p723
aS'our'
p724
aS'ours'
p725
aS'ourselves'
p726
aS'out'
p727
aS'outside'
p728
aS'over'
p729
aS'overall'
p730
aS'own'
p731
aS'p'
p732
aS'particular'
p733
aS'particularly'
p734
aS'per'
p735
aS'perhaps'
p736
aS'placed'
p737
aS'please'
p738
aS'plus'
p739
aS'possible'
p740
aS'presumably'
p741
aS'probably'
p742
aS'provides'
p743
aS'q'
p744
aS'que'
p745
aS'quite'
p746
aS'qv'
p747
aS'r'
p748
aS'rather'
p749
aS'rd'
p750
aS're'
p751
aS'really'
p752
aS'reasonably'
p753
aS'regarding'
p754
aS'regardless'
p755
aS'regards'
p756
aS'relatively'
p757
aS'respectively'
p758
aS'right'
p759
aS's'
p760
aS'said'
p761
aS'same'
p762
aS'saw'
p763
aS'say'
p764
aS'saying'
p765
aS'says'
p766
aS'second'
p767
aS'secondly'
p768
aS'see'
p769
aS'seeing'
p770
aS'seem'
p771
aS'seemed'
p772
aS'seeming'
p773
aS'seems'
p774
aS'seen'
p775
aS'self'
p776
aS'selves'
p777
aS'sensible'
p778
aS'sent'
p779
aS'serious'
p780
aS'seriously'
p781
aS'seven'
p782
aS'several'
p783
aS'shall'
p784
aS'she'
p785
aS'should'
p786
aS"shouldn't"
p787
aS'since'
p788
aS'six'
p789
aS'so'
p790
aS'some'
p791
aS'somebody'
p792
aS'somehow'
p793
aS'someone'
p794
aS'something'
p795
aS'sometime'
p796
aS'sometimes'
p797
aS'somewhat'
p798
aS'somewhere'
p799
aS'soon'
p800
aS'sorry'
p801
aS'specified'
p802
aS'specify'
p803
aS'specifying'
p804
aS'still'
p805
aS'sub'
p806
aS'such'
p807
aS'sup'
p808
aS'sure'
p809
aS't'
p810
aS"t's"
p811
aS'take'
p812
aS'taken'
p813
aS'tell'
p814
aS'tends'
p815
aS'th'
p816
aS'than'
p817
aS'thank'
p818
aS'thanks'
p819
aS'thanx'
p820
aS'that'
p821
aS"that's"
p822
aS'thats'
p823
aS'the'
p824
aS'their'
p825
aS'theirs'
p826
aS'them'
p827
aS'themselves'
p828
aS'then'
p829
aS'thence'
p830
aS'there'
p831
aS"there's"
p832
aS'thereafter'
p833
aS'thereby'
p834
aS'therefore'
p835
aS'therein'
p836
aS'theres'
p837
aS'thereupon'
p838
aS'these'
p839
aS'they'
p840
aS"they'd"
p841
aS"they'll"
p842
aS"they're"
p843
aS"they've"
p844
aS'think'
p845
aS'third'
p846
aS'this'
p847
aS'thorough'
p848
aS'thoroughly'
p849
aS'those'
p850
aS'though'
p851
aS'three'
p852
aS'through'
p853
aS'throughout'
p854
aS'thru'
p855
aS'thus'
p856
aS'to'
p857
aS'together'
p858
aS'too'
p859
aS'took'
p860
aS'toward'
p861
aS'towards'
p862
aS'tried'
p863
aS'tries'
p864
aS'truly'
p865
aS'try'
p866
aS'trying'
p867
aS'twice'
p868
aS'two'
p869
aS'u'
p870
aS'un'
p871
aS'under'
p872
aS'unfortunately'
p873
aS'unless'
p874
aS'unlikely'
p875
aS'until'
p876
aS'unto'
p877
aS'up'
p878
aS'upon'
p879
aS'us'
p880
aS'use'
p881
aS'used'
p882
aS'useful'
p883
aS'uses'
p884
aS'using'
p885
aS'usually'
p886
aS'uucp'
p887
aS'v'
p888
aS'value'
p889
aS'various'
p890
aS'very'
p891
aS'via'
p892
aS'viz'
p893
aS'vs'
p894
aS'w'
p895
aS'want'
p896
aS'wants'
p897
aS'was'
p898
aS"wasn't"
p899
aS'way'
p900
aS'we'
p901
aS"we'd"
p902
aS"we'll"
p903
aS"we're"
p904
aS"we've"
p905
aS'welcome'
p906
aS'well'
p907
aS'went'
p908
aS'were'
p909
aS"weren't"
p910
aS'what'
p911
aS"what's"
p912
aS'whatever'
p913
aS'when'
p914
aS'whence'
p915
aS'whenever'
p916
aS'where'
p917
aS"where's"
p918
aS'whereafter'
p919
aS'whereas'
p920
aS'whereby'
p921
aS'wherein'
p922
aS'whereupon'
p923
aS'wherever'
p924
aS'whether'
p925
aS'which'
p926
aS'while'
p927
aS'whither'
p928
aS'who'
p929
aS"who's"
p930
aS'whoever'
p931
aS'whole'
p932
aS'whom'
p933
aS'whose'
p934
aS'why'
p935
aS'will'
p936
aS'willing'
p937
aS'wish'
p938
aS'with'
p939
aS'within'
p940
aS'without'
p941
aS"won't"
p942
aS'wonder'
p943
aS'would'
p944
aS'would'
p945
aS"wouldn't"
p946
aS'x'
p947
aS'y'
p948
aS'yes'
p949
aS'yet'
p950
aS'you'
p951
aS"you'd"
p952
aS"you'll"
p953
aS"you're"
p954
aS"you've"
p955
aS'your'
p956
aS'yours'
p957
aS'yourself'
p958
aS'yourselves'
p959
aS'z'
p960
aS'zero'
p961
asS'words'
p962
(lp963
g6
ag26
ag24
ag31
ag17
ag15
ag12
ag29
ag14
ag19
ag18
ag27
ag9
ag25
ag28
ag30
ag16
ag23
asS'u_out'
p964
NsS'predicates'
p965
(lp966
g6
ag26
ag24
ag31
ag17
ag15
ag12
ag29
ag14
ag19
ag18
ag27
ag9
ag25
ag28
ag30
ag16
ag10
ag8
ag7
ag23
ag11
ag13
ag20
ag22
ag21
asS'alpha'
p967
F0.9
sS'words_to_predicates'
p968
(dp969
g6
(lp970
g6
ag8
ag7
ag11
ag20
asg18
(lp971
g18
asg19
(lp972
g19
ag11
ag20
asg12
(lp973
g12
asg26
(lp974
g26
ag10
asg23
(lp975
g23
asg24
(lp976
g24
ag22
ag21
asg16
(lp977
g16
asg9
(lp978
g9
ag13
asg15
(lp979
g15
asg25
(lp980
g25
asg14
(lp981
g14
ag20
asg27
(lp982
g27
ag10
asg28
(lp983
g28
ag13
asg29
(lp984
g29
asg30
(lp985
g30
asg31
(lp986
g31
asg17
(lp987
g17
assb.