(lp0
(I0
I18
I00
tp1
a(I1
I27
I00
tp2
a(I1
I2
I00
tp3
a(I1
I10
I00
tp4
a(I1
I7
I00
tp5
a(I1
I3
I00
tp6
a(I1
I18
I00
tp7
a(I1
I20
I00
tp8
a(I1
I17
I00
tp9
a(I2
I27
I00
tp10
a(I0
I5
I01
tp11
a(I1
I5
I01
tp12
a(I2
I5
I01
tp13
a(I3
I5
I01
tp14
a.