(lp0
(I0
I2
I01
tp1
a(I1
I27
I00
tp2
a(I2
I7
I01
tp3
a(I1
I27
I00
tp4
a(I2
I27
I00
tp5
a(I1
I8
I01
tp6
a(I0
I8
I01
tp7
a(I2
I8
I01
tp8
a(I3
I27
I00
tp9
a(I3
I27
I00
tp10
a(I1
I27
I00
tp11
a(I3
I27
I00
tp12
a(I0
I27
I00
tp13
a(I0
I5
I01
tp14
a(I2
I5
I01
tp15
a(I3
I5
I01
tp16
a(I4
I2
I00
tp17
a(I5
I17
I00
tp18
a(I5
I10
I00
tp19
a(I6
I10
I01
tp20
a(I7
I2
I01
tp21
a(I4
I8
I01
tp22
a(I5
I8
I01
tp23
a(I8
I8
I01
tp24
a(I7
I8
I01
tp25
a(I6
I8
I01
tp26
a(I2
I7
I01
tp27
a(I0
I2
I01
tp28
a(I4
I7
I00
tp29
a(I9
I7
I01
tp30
a(I2
I10
I00
tp31
a(I2
I8
I01
tp32
a(I0
I8
I01
tp33
a(I9
I8
I01
tp34
a(I6
I20
I01
tp35
a(I10
I3
I01
tp36
a(I0
I20
I01
tp37
a(I11
I3
I01
tp38
a(I0
I10
I01
tp39
a(I10
I30
I01
tp40
a(I11
I30
I01
tp41
a(I0
I30
I01
tp42
a(I6
I30
I01
tp43
a(I12
I27
I01
tp44
a(I13
I10
I00
tp45
a(I13
I17
I00
tp46
a(I13
I7
I00
tp47
a(I13
I2
I00
tp48
a(I13
I18
I00
tp49
a(I13
I27
I00
tp50
a(I13
I3
I00
tp51
a(I13
I20
I00
tp52
a(I10
I10
I00
tp53
a(I0
I17
I01
tp54
a(I10
I2
I00
tp55
a(I12
I15
I01
tp56
a(I0
I15
I01
tp57
a(I13
I15
I01
tp58
a.