(lp0
(I0
I2
I00
tp1
a(I1
I17
I00
tp2
a(I1
I10
I00
tp3
a(I2
I10
I01
tp4
a(I3
I2
I01
tp5
a(I0
I8
I01
tp6
a(I1
I8
I01
tp7
a(I4
I8
I01
tp8
a(I3
I8
I01
tp9
a(I2
I8
I01
tp10
a(I5
I7
I01
tp11
a(I6
I2
I01
tp12
a(I0
I7
I00
tp13
a(I7
I7
I01
tp14
a(I5
I10
I00
tp15
a(I5
I8
I01
tp16
a(I6
I8
I01
tp17
a(I7
I8
I01
tp18
a.