(lp0
(I0
I2
I01
tp1
a(I1
I27
I00
tp2
a(I2
I7
I01
tp3
a(I1
I27
I00
tp4
a(I2
I27
I00
tp5
a(I1
I8
I01
tp6
a(I0
I8
I01
tp7
a(I2
I8
I01
tp8
a(I3
I27
I00
tp9
a(I3
I27
I00
tp10
a(I1
I27
I00
tp11
a(I3
I27
I00
tp12
a(I0
I27
I00
tp13
a(I0
I5
I01
tp14
a(I2
I5
I01
tp15
a(I3
I5
I01
tp16
a.