(lp0
(I0
I2
I01
tp1
a(I1
I17
I01
tp2
a(I2
I7
I00
tp3
a(I2
I27
I00
tp4
a(I2
I2
I00
tp5
a(I2
I18
I00
tp6
a(I2
I17
I00
tp7
a(I2
I10
I00
tp8
a(I2
I20
I00
tp9
a(I2
I3
I00
tp10
a(I3
I20
I01
tp11
a(I4
I10
I01
tp12
a(I4
I14
I01
tp13
a(I0
I14
I01
tp14
a(I2
I14
I01
tp15
a(I1
I14
I01
tp16
a(I3
I14
I01
tp17
a(I3
I2
I01
tp18
a(I5
I2
I01
tp19
a(I6
I17
I01
tp20
a(I5
I7
I01
tp21
a(I0
I2
I01
tp22
a(I7
I29
I01
tp23
a(I0
I29
I01
tp24
a(I3
I29
I01
tp25
a(I5
I29
I01
tp26
a(I6
I29
I01
tp27
a(I2
I29
I01
tp28
a(I8
I29
I01
tp29
a(I1
I2
I00
tp30
a(I1
I17
I00
tp31
a(I1
I18
I00
tp32
a(I1
I10
I00
tp33
a(I1
I27
I00
tp34
a(I1
I3
I00
tp35
a(I1
I20
I00
tp36
a(I1
I7
I00
tp37
a(I2
I10
I01
tp38
a(I9
I2
I01
tp39
a(I4
I27
I01
tp40
a(I9
I3
I00
tp41
a(I4
I1
I01
tp42
a(I9
I1
I01
tp43
a(I2
I1
I01
tp44
a(I1
I1
I01
tp45
a(I10
I2
I00
tp46
a(I10
I17
I00
tp47
a(I10
I18
I00
tp48
a(I10
I10
I00
tp49
a(I10
I27
I00
tp50
a(I10
I3
I00
tp51
a(I10
I20
I00
tp52
a(I10
I7
I00
tp53
a(I10
I8
I01
tp54
a(I11
I3
I00
tp55
a(I12
I10
I00
tp56
a(I13
I10
I01
tp57
a(I11
I18
I01
tp58
a(I12
I18
I01
tp59
a(I11
I30
I01
tp60
a(I12
I30
I01
tp61
a(I13
I30
I01
tp62
a(I14
I2
I00
tp63
a(I14
I27
I00
tp64
a(I14
I3
I00
tp65
a(I14
I17
I00
tp66
a(I14
I10
I00
tp67
a(I14
I20
I00
tp68
a(I14
I7
I00
tp69
a(I14
I18
I00
tp70
a(I15
I2
I00
tp71
a(I15
I27
I00
tp72
a(I15
I3
I00
tp73
a(I15
I17
I00
tp74
a(I15
I10
I00
tp75
a(I15
I20
I00
tp76
a(I15
I7
I00
tp77
a(I15
I18
I00
tp78
a(I16
I2
I01
tp79
a(I17
I7
I00
tp80
a(I14
I18
I00
tp81
a(I16
I31
I01
tp82
a(I14
I31
I01
tp83
a(I17
I31
I01
tp84
a(I18
I10
I01
tp85
a(I2
I20
I00
tp86
a(I18
I3
I00
tp87
a(I19
I7
I01
tp88
a(I0
I10
I00
tp89
a(I0
I7
I00
tp90
a(I0
I3
I00
tp91
a(I0
I27
I00
tp92
a(I0
I18
I00
tp93
a(I0
I17
I00
tp94
a(I0
I2
I00
tp95
a(I0
I20
I00
tp96
a(I19
I8
I01
tp97
a(I0
I8
I01
tp98
a(I2
I8
I01
tp99
a(I18
I8
I01
tp100
a(I4
I27
I01
tp101
a(I12
I17
I01
tp102
a(I20
I10
I00
tp103
a(I21
I18
I01
tp104
a(I20
I7
I00
tp105
a(I4
I14
I01
tp106
a(I21
I14
I01
tp107
a(I20
I14
I01
tp108
a(I12
I14
I01
tp109
a(I12
I18
I01
tp110
a(I22
I3
I00
tp111
a(I22
I20
I00
tp112
a(I22
I7
I00
tp113
a(I22
I17
I00
tp114
a(I22
I18
I00
tp115
a(I22
I27
I00
tp116
a(I22
I10
I00
tp117
a(I22
I2
I00
tp118
a(I4
I7
I00
tp119
a(I2
I20
I00
tp120
a(I1
I17
I01
tp121
a(I4
I14
I01
tp122
a(I22
I14
I01
tp123
a(I2
I14
I01
tp124
a(I1
I14
I01
tp125
a(I12
I14
I01
tp126
a(I13
I2
I00
tp127
a(I13
I10
I01
tp128
a(I12
I18
I01
tp129
a(I23
I3
I00
tp130
a(I23
I20
I00
tp131
a(I23
I7
I00
tp132
a(I23
I17
I00
tp133
a(I23
I18
I00
tp134
a(I23
I27
I00
tp135
a(I23
I10
I00
tp136
a(I23
I2
I00
tp137
a(I11
I18
I01
tp138
a(I11
I30
I01
tp139
a(I23
I30
I01
tp140
a(I12
I30
I01
tp141
a(I13
I30
I01
tp142
a(I3
I31
I01
tp143
a(I24
I8
I00
tp144
a(I24
I5
I00
tp145
a(I24
I1
I00
tp146
a(I24
I15
I00
tp147
a(I24
I14
I00
tp148
a(I24
I31
I00
tp149
a(I24
I30
I00
tp150
a(I24
I29
I00
tp151
a(I25
I14
I01
tp152
a(I26
I8
I00
tp153
a(I26
I5
I00
tp154
a(I26
I1
I00
tp155
a(I26
I15
I00
tp156
a(I26
I14
I00
tp157
a(I26
I31
I00
tp158
a(I26
I30
I00
tp159
a(I26
I29
I00
tp160
a(I17
I15
I00
tp161
a(I24
I24
I01
tp162
a(I25
I24
I01
tp163
a(I26
I24
I01
tp164
a(I27
I8
I00
tp165
a(I27
I5
I00
tp166
a(I27
I1
I00
tp167
a(I27
I15
I00
tp168
a(I27
I14
I00
tp169
a(I27
I31
I00
tp170
a(I27
I30
I00
tp171
a(I27
I29
I00
tp172
a(I9
I14
I01
tp173
a(I12
I1
I01
tp174
a(I7
I8
I00
tp175
a(I23
I14
I00
tp176
a(I14
I4
I01
tp177
a(I27
I4
I01
tp178
a(I7
I1
I00
tp179
a(I28
I8
I01
tp180
a(I29
I8
I01
tp181
a(I22
I31
I01
tp182
a(I2
I31
I00
tp183
a(I2
I0
I01
tp184
a(I21
I0
I01
tp185
a(I28
I0
I01
tp186
a(I13
I0
I01
tp187
a(I29
I0
I01
tp188
a(I24
I29
I00
tp189
a(I24
I31
I00
tp190
a(I24
I14
I00
tp191
a(I24
I5
I00
tp192
a(I24
I1
I00
tp193
a(I24
I30
I00
tp194
a(I24
I15
I00
tp195
a(I24
I8
I00
tp196
a(I17
I15
I00
tp197
a(I13
I8
I00
tp198
a(I13
I5
I00
tp199
a(I12
I1
I00
tp200
a(I24
I24
I01
tp201
a(I21
I24
I01
tp202
a(I1
I24
I01
tp203
a(I12
I24
I01
tp204
a(I28
I8
I01
tp205
a(I23
I1
I01
tp206
a(I30
I15
I00
tp207
a(I30
I30
I00
tp208
a(I30
I14
I00
tp209
a(I30
I31
I00
tp210
a(I30
I5
I00
tp211
a(I30
I29
I00
tp212
a(I30
I8
I00
tp213
a(I30
I1
I00
tp214
a(I21
I8
I00
tp215
a(I17
I15
I00
tp216
a(I11
I0
I01
tp217
a(I2
I0
I01
tp218
a(I30
I0
I01
tp219
a(I28
I0
I01
tp220
a(I13
I0
I01
tp221
a(I23
I1
I00
tp222
a(I2
I31
I01
tp223
a(I2
I15
I01
tp224
a(I20
I8
I00
tp225
a(I23
I8
I01
tp226
a(I14
I23
I01
tp227
a(I31
I8
I01
tp228
a(I7
I31
I00
tp229
a(I19
I29
I01
tp230
a(I15
I31
I00
tp231
a(I15
I5
I00
tp232
a(I19
I19
I01
tp233
a(I3
I19
I01
tp234
a(I14
I19
I01
tp235
a(I31
I19
I01
tp236
a(I32
I31
I01
tp237
a(I33
I29
I00
tp238
a(I33
I8
I00
tp239
a(I33
I14
I00
tp240
a(I33
I1
I00
tp241
a(I33
I15
I00
tp242
a(I33
I30
I00
tp243
a(I33
I31
I00
tp244
a(I33
I5
I00
tp245
a(I14
I14
I00
tp246
a(I15
I15
I00
tp247
a(I16
I14
I00
tp248
a(I32
I9
I01
tp249
a(I0
I9
I01
tp250
a(I3
I9
I01
tp251
a(I33
I9
I01
tp252
a(I13
I9
I01
tp253
a(I20
I8
I00
tp254
a(I13
I8
I00
tp255
a(I19
I29
I01
tp256
a(I6
I15
I01
tp257
a(I2
I31
I00
tp258
a(I3
I23
I01
tp259
a(I14
I23
I01
tp260
a(I5
I15
I00
tp261
a(I16
I5
I00
tp262
a(I17
I15
I00
tp263
a(I22
I31
I01
tp264
a(I23
I1
I00
tp265
a(I11
I24
I01
tp266
a(I3
I24
I01
tp267
a(I1
I24
I01
tp268
a(I34
I0
I01
tp269
a(I34
I16
I00
tp270
a(I35
I9
I01
tp271
a(I35
I11
I01
tp272
a(I34
I11
I01
tp273
a.