(lp0
(I0
I10
I01
tp1
a(I0
I20
I01
tp2
a(I0
I27
I00
tp3
a(I1
I30
I01
tp4
a(I2
I30
I01
tp5
a(I3
I30
I01
tp6
a(I4
I30
I01
tp7
a(I0
I30
I01
tp8
a(I5
I10
I01
tp9
a(I6
I10
I00
tp10
a(I3
I3
I01
tp11
a(I3
I5
I01
tp12
a(I5
I5
I01
tp13
a(I6
I5
I01
tp14
a.