(lp0
(I0
I3
I01
tp1
a(I1
I18
I00
tp2
a(I1
I3
I00
tp3
a(I1
I10
I00
tp4
a(I1
I2
I00
tp5
a(I1
I27
I00
tp6
a(I1
I20
I00
tp7
a(I1
I7
I00
tp8
a(I1
I17
I00
tp9
a(I2
I3
I01
tp10
a(I3
I5
I01
tp11
a(I0
I5
I01
tp12
a(I2
I5
I01
tp13
a(I1
I5
I01
tp14
a(I1
I18
I00
tp15
a(I4
I2
I01
tp16
a(I1
I18
I00
tp17
a(I1
I3
I00
tp18
a(I1
I10
I00
tp19
a(I1
I2
I00
tp20
a(I1
I27
I00
tp21
a(I1
I20
I00
tp22
a(I1
I7
I00
tp23
a(I1
I17
I00
tp24
a(I4
I31
I01
tp25
a(I5
I31
I01
tp26
a(I1
I31
I01
tp27
a.