(lp0
(lp1
NaNaa(lp2
(dp3
S'lower'
p4
(dp5
S'audio'
p6
I0
sS'haptics'
p7
I0
ssS'look'
p8
(dp9
S'color'
p10
I0
sS'fpfh'
p11
I0
sS'fc7'
p12
I0
ssS'drop'
p13
(dp14
g6
I0
sg7
I0
ssS'press'
p15
(dp16
g6
I0
sg7
I0
ssS'lift'
p17
(dp18
g6
I0
sg7
I0
ssS'push'
p19
(dp20
g6
I0
sg7
I0
ssS'grasp'
p21
(dp22
g6
I0
sg7
I0
ssS'hold'
p23
(dp24
g6
I0
sg7
I0
ssa(dp25
g4
(dp26
g6
I0
sg7
I0
ssg8
(dp27
g10
I0
sg11
I0
sg12
I0
ssg13
(dp28
g6
I0
sg7
I0
ssg15
(dp29
g6
I0
sg7
I0
ssg17
(dp30
g6
I0
sg7
I0
ssg19
(dp31
g6
I0
sg7
I0
ssg21
(dp32
g6
I0
sg7
I0
ssg23
(dp33
g6
I0
sg7
I0
ssaa.