(lp0
(I0
I27
I01
tp1
a(I1
I2
I01
tp2
a(I2
I27
I01
tp3
a(I2
I15
I01
tp4
a(I3
I15
I01
tp5
a(I0
I15
I01
tp6
a(I1
I15
I01
tp7
a(I1
I20
I01
tp8
a(I4
I10
I01
tp9
a(I5
I18
I01
tp10
a(I5
I29
I01
tp11
a(I0
I29
I01
tp12
a(I1
I29
I01
tp13
a(I4
I29
I01
tp14
a.