(lp0
(I0
I10
I01
tp1
a(I0
I20
I01
tp2
a(I0
I27
I00
tp3
a(I1
I30
I01
tp4
a(I2
I30
I01
tp5
a(I3
I30
I01
tp6
a(I4
I30
I01
tp7
a(I0
I30
I01
tp8
a(I5
I10
I01
tp9
a(I6
I10
I00
tp10
a(I3
I3
I01
tp11
a(I3
I5
I01
tp12
a(I5
I5
I01
tp13
a(I6
I5
I01
tp14
a(I7
I27
I01
tp15
a(I5
I2
I01
tp16
a(I8
I27
I01
tp17
a(I8
I15
I01
tp18
a(I2
I15
I01
tp19
a(I7
I15
I01
tp20
a(I5
I15
I01
tp21
a(I5
I20
I01
tp22
a(I0
I10
I01
tp23
a(I9
I18
I01
tp24
a(I9
I29
I01
tp25
a(I7
I29
I01
tp26
a(I5
I29
I01
tp27
a(I0
I29
I01
tp28
a(I7
I10
I01
tp29
a(I4
I18
I01
tp30
a(I4
I17
I01
tp31
a(I10
I17
I01
tp32
a(I7
I10
I01
tp33
a(I7
I14
I01
tp34
a(I10
I14
I01
tp35
a(I4
I14
I01
tp36
a(I11
I14
I01
tp37
a(I12
I27
I01
tp38
a(I13
I7
I01
tp39
a(I14
I7
I01
tp40
a(I14
I7
I01
tp41
a(I12
I27
I01
tp42
a(I8
I1
I01
tp43
a(I13
I1
I01
tp44
a(I12
I1
I01
tp45
a(I14
I1
I01
tp46
a(I3
I3
I01
tp47
a(I6
I18
I00
tp48
a(I6
I3
I00
tp49
a(I6
I10
I00
tp50
a(I6
I2
I00
tp51
a(I6
I27
I00
tp52
a(I6
I20
I00
tp53
a(I6
I7
I00
tp54
a(I6
I17
I00
tp55
a(I5
I3
I01
tp56
a(I2
I5
I01
tp57
a(I3
I5
I01
tp58
a(I5
I5
I01
tp59
a(I6
I5
I01
tp60
a(I6
I18
I00
tp61
a(I15
I2
I01
tp62
a(I6
I18
I00
tp63
a(I6
I3
I00
tp64
a(I6
I10
I00
tp65
a(I6
I2
I00
tp66
a(I6
I27
I00
tp67
a(I6
I20
I00
tp68
a(I6
I7
I00
tp69
a(I6
I17
I00
tp70
a(I15
I31
I01
tp71
a(I16
I31
I01
tp72
a(I6
I31
I01
tp73
a.