(lp0
(I0
I2
I01
tp1
a(I1
I2
I01
tp2
a(I2
I17
I01
tp3
a(I1
I7
I01
tp4
a(I3
I2
I01
tp5
a(I4
I29
I01
tp6
a(I3
I29
I01
tp7
a(I0
I29
I01
tp8
a(I1
I29
I01
tp9
a(I2
I29
I01
tp10
a(I5
I29
I01
tp11
a(I6
I29
I01
tp12
a.