(lp0
(I0
I2
I00
tp1
a(I0
I17
I00
tp2
a(I0
I18
I00
tp3
a(I0
I10
I00
tp4
a(I0
I27
I00
tp5
a(I0
I3
I00
tp6
a(I0
I20
I00
tp7
a(I0
I7
I00
tp8
a(I1
I10
I01
tp9
a(I2
I2
I01
tp10
a(I3
I27
I01
tp11
a(I2
I3
I00
tp12
a(I3
I1
I01
tp13
a(I2
I1
I01
tp14
a(I1
I1
I01
tp15
a(I0
I1
I01
tp16
a.