(lp0
(I1
I0
F-1.0
tp1
a(I3
I0
F1.0
tp2
a(I8
I0
F-1.0
tp3
a(I11
I0
F-1.0
tp4
a(I16
I0
F-1.0
tp5
a(I18
I0
F1.0
tp6
a(I19
I0
F-1.0
tp7
a(I26
I0
F1.0
tp8
a(I29
I0
F-1.0
tp9
a(I30
I0
F1.0
tp10
a(I33
I0
F1.0
tp11
a(I34
I0
F1.0
tp12
a(I35
I0
F1.0
tp13
a(I37
I0
F1.0
tp14
a(I38
I0
F-1.0
tp15
a(I42
I0
F-1.0
tp16
a(I43
I0
F1.0
tp17
a(I45
I0
F-1.0
tp18
a(I52
I0
F1.0
tp19
a(I59
I0
F1.0
tp20
a(I61
I0
F1.0
tp21
a(I63
I0
F-1.0
tp22
a(I67
I0
F-1.0
tp23
a(I71
I0
F-1.0
tp24
a(I72
I0
F1.0
tp25
a(I75
I0
F-1.0
tp26
a(I76
I0
F1.0
tp27
a(I77
I0
F1.0
tp28
a(I10
I1
F1.0
tp29
a(I12
I1
F1.0
tp30
a(I23
I1
F1.0
tp31
a(I28
I1
F1.0
tp32
a(I29
I1
F-1.0
tp33
a(I30
I1
F1.0
tp34
a(I34
I1
F1.0
tp35
a(I36
I1
F1.0
tp36
a(I38
I1
F-1.0
tp37
a(I42
I1
F-1.0
tp38
a(I46
I1
F1.0
tp39
a(I48
I1
F-1.0
tp40
a(I50
I1
F-1.0
tp41
a(I52
I1
F-1.0
tp42
a(I53
I1
F-1.0
tp43
a(I56
I1
F1.0
tp44
a(I59
I1
F1.0
tp45
a(I60
I1
F1.0
tp46
a(I63
I1
F-1.0
tp47
a(I72
I1
F1.0
tp48
a(I73
I1
F-1.0
tp49
a(I78
I1
F1.0
tp50
a(I79
I1
F1.0
tp51
a(I2
I2
F-1.0
tp52
a(I11
I2
F1.0
tp53
a(I12
I2
F1.0
tp54
a(I14
I2
F1.0
tp55
a(I15
I2
F1.0
tp56
a(I19
I2
F-1.0
tp57
a(I23
I2
F-1.0
tp58
a(I26
I2
F-1.0
tp59
a(I33
I2
F-1.0
tp60
a(I34
I2
F1.0
tp61
a(I37
I2
F1.0
tp62
a(I49
I2
F-1.0
tp63
a(I52
I2
F-1.0
tp64
a(I53
I2
F-1.0
tp65
a(I54
I2
F1.0
tp66
a(I58
I2
F-1.0
tp67
a(I59
I2
F1.0
tp68
a(I62
I2
F-1.0
tp69
a(I71
I2
F1.0
tp70
a(I72
I2
F-1.0
tp71
a(I77
I2
F1.0
tp72
a(I3
I3
F-1.0
tp73
a(I4
I3
F1.0
tp74
a(I14
I3
F1.0
tp75
a(I18
I3
F-1.0
tp76
a(I20
I3
F-1.0
tp77
a(I32
I3
F1.0
tp78
a(I36
I3
F-1.0
tp79
a(I40
I3
F-1.0
tp80
a(I42
I3
F1.0
tp81
a(I44
I3
F1.0
tp82
a(I47
I3
F-1.0
tp83
a(I53
I3
F1.0
tp84
a(I58
I3
F1.0
tp85
a(I59
I3
F1.0
tp86
a(I60
I3
F-1.0
tp87
a(I61
I3
F-1.0
tp88
a(I63
I3
F-1.0
tp89
a(I64
I3
F1.0
tp90
a(I71
I3
F1.0
tp91
a(I74
I3
F1.0
tp92
a(I76
I3
F-1.0
tp93
a(I2
I4
F1.0
tp94
a(I3
I4
F1.0
tp95
a(I6
I4
F1.0
tp96
a(I19
I4
F-1.0
tp97
a(I30
I4
F1.0
tp98
a(I33
I4
F-1.0
tp99
a(I37
I4
F1.0
tp100
a(I49
I4
F1.0
tp101
a(I53
I4
F1.0
tp102
a(I59
I4
F1.0
tp103
a(I63
I4
F1.0
tp104
a(I68
I4
F1.0
tp105
a(I71
I4
F1.0
tp106
a(I72
I4
F-1.0
tp107
a(I74
I4
F1.0
tp108
a(I77
I4
F1.0
tp109
a(I80
I4
F1.0
tp110
a(I2
I5
F1.0
tp111
a(I10
I5
F1.0
tp112
a(I25
I5
F-1.0
tp113
a(I26
I5
F1.0
tp114
a(I29
I5
F-1.0
tp115
a(I38
I5
F-1.0
tp116
a(I39
I5
F1.0
tp117
a(I46
I5
F1.0
tp118
a(I48
I5
F1.0
tp119
a(I51
I5
F1.0
tp120
a(I53
I5
F-1.0
tp121
a(I56
I5
F1.0
tp122
a(I62
I5
F-1.0
tp123
a(I69
I5
F-1.0
tp124
a(I71
I5
F1.0
tp125
a(I74
I5
F-1.0
tp126
a(I76
I5
F1.0
tp127
a(I77
I5
F1.0
tp128
a(I12
I6
F1.0
tp129
a(I15
I6
F-1.0
tp130
a(I16
I6
F-1.0
tp131
a(I18
I6
F-1.0
tp132
a(I22
I6
F-1.0
tp133
a(I23
I6
F1.0
tp134
a(I26
I6
F1.0
tp135
a(I30
I6
F1.0
tp136
a(I33
I6
F1.0
tp137
a(I35
I6
F1.0
tp138
a(I38
I6
F-1.0
tp139
a(I50
I6
F1.0
tp140
a(I52
I6
F1.0
tp141
a(I58
I6
F-1.0
tp142
a(I77
I6
F1.0
tp143
a(I79
I6
F1.0
tp144
a(I3
I7
F1.0
tp145
a(I5
I7
F1.0
tp146
a(I7
I7
F1.0
tp147
a(I10
I7
F-1.0
tp148
a(I12
I7
F-1.0
tp149
a(I15
I7
F-1.0
tp150
a(I18
I7
F-1.0
tp151
a(I20
I7
F-1.0
tp152
a(I22
I7
F1.0
tp153
a(I25
I7
F-1.0
tp154
a(I34
I7
F1.0
tp155
a(I38
I7
F-1.0
tp156
a(I48
I7
F-1.0
tp157
a(I53
I7
F1.0
tp158
a(I59
I7
F1.0
tp159
a(I61
I7
F1.0
tp160
a(I62
I7
F-1.0
tp161
a(I63
I7
F-1.0
tp162
a(I66
I7
F-1.0
tp163
a(I67
I7
F1.0
tp164
a(I69
I7
F-1.0
tp165
a(I71
I7
F1.0
tp166
a(I73
I7
F-1.0
tp167
a(I76
I7
F1.0
tp168
a(I77
I7
F1.0
tp169
a(I3
I8
F1.0
tp170
a(I8
I8
F-1.0
tp171
a(I10
I8
F-1.0
tp172
a(I12
I8
F-1.0
tp173
a(I17
I8
F-1.0
tp174
a(I18
I8
F1.0
tp175
a(I20
I8
F1.0
tp176
a(I21
I8
F1.0
tp177
a(I30
I8
F1.0
tp178
a(I34
I8
F1.0
tp179
a(I37
I8
F1.0
tp180
a(I39
I8
F-1.0
tp181
a(I43
I8
F1.0
tp182
a(I44
I8
F1.0
tp183
a(I45
I8
F1.0
tp184
a(I46
I8
F-1.0
tp185
a(I53
I8
F1.0
tp186
a(I54
I8
F1.0
tp187
a(I56
I8
F-1.0
tp188
a(I57
I8
F-1.0
tp189
a(I59
I8
F1.0
tp190
a(I60
I8
F-1.0
tp191
a(I61
I8
F1.0
tp192
a(I62
I8
F-1.0
tp193
a(I67
I8
F-1.0
tp194
a(I68
I8
F1.0
tp195
a(I74
I8
F1.0
tp196
a(I75
I8
F-1.0
tp197
a(I76
I8
F1.0
tp198
a(I1
I9
F-1.0
tp199
a(I4
I9
F-1.0
tp200
a(I10
I9
F1.0
tp201
a(I28
I9
F-1.0
tp202
a(I30
I9
F1.0
tp203
a(I32
I9
F-1.0
tp204
a(I33
I9
F1.0
tp205
a(I35
I9
F1.0
tp206
a(I36
I9
F-1.0
tp207
a(I37
I9
F1.0
tp208
a(I45
I9
F-1.0
tp209
a(I46
I9
F-1.0
tp210
a(I49
I9
F-1.0
tp211
a(I54
I9
F1.0
tp212
a(I55
I9
F-1.0
tp213
a(I57
I9
F-1.0
tp214
a(I63
I9
F-1.0
tp215
a(I71
I9
F-1.0
tp216
a(I73
I9
F-1.0
tp217
a(I75
I9
F-1.0
tp218
a(I2
I10
F-1.0
tp219
a(I3
I10
F1.0
tp220
a(I8
I10
F1.0
tp221
a(I10
I10
F-1.0
tp222
a(I11
I10
F-1.0
tp223
a(I12
I10
F-1.0
tp224
a(I13
I10
F-1.0
tp225
a(I19
I10
F-1.0
tp226
a(I23
I10
F1.0
tp227
a(I25
I10
F-1.0
tp228
a(I26
I10
F1.0
tp229
a(I30
I10
F1.0
tp230
a(I33
I10
F1.0
tp231
a(I34
I10
F1.0
tp232
a(I38
I10
F-1.0
tp233
a(I39
I10
F1.0
tp234
a(I42
I10
F1.0
tp235
a(I47
I10
F1.0
tp236
a(I48
I10
F1.0
tp237
a(I52
I10
F1.0
tp238
a(I69
I10
F-1.0
tp239
a(I72
I10
F1.0
tp240
a(I73
I10
F1.0
tp241
a(I75
I10
F-1.0
tp242
a(I77
I10
F1.0
tp243
a(I79
I10
F1.0
tp244
a(I2
I11
F1.0
tp245
a(I13
I11
F-1.0
tp246
a(I18
I11
F1.0
tp247
a(I19
I11
F-1.0
tp248
a(I26
I11
F-1.0
tp249
a(I30
I11
F1.0
tp250
a(I33
I11
F-1.0
tp251
a(I34
I11
F1.0
tp252
a(I37
I11
F1.0
tp253
a(I38
I11
F-1.0
tp254
a(I44
I11
F1.0
tp255
a(I45
I11
F1.0
tp256
a(I48
I11
F-1.0
tp257
a(I49
I11
F-1.0
tp258
a(I53
I11
F1.0
tp259
a(I58
I11
F-1.0
tp260
a(I63
I11
F1.0
tp261
a(I66
I11
F-1.0
tp262
a(I69
I11
F-1.0
tp263
a(I71
I11
F-1.0
tp264
a(I74
I11
F1.0
tp265
a(I76
I11
F1.0
tp266
a(I79
I11
F-1.0
tp267
a(I80
I11
F-1.0
tp268
a(I1
I12
F-1.0
tp269
a(I3
I12
F1.0
tp270
a(I19
I12
F-1.0
tp271
a(I22
I12
F-1.0
tp272
a(I24
I12
F1.0
tp273
a(I25
I12
F1.0
tp274
a(I30
I12
F1.0
tp275
a(I48
I12
F1.0
tp276
a(I52
I12
F1.0
tp277
a(I58
I12
F-1.0
tp278
a(I60
I12
F1.0
tp279
a(I61
I12
F-1.0
tp280
a(I67
I12
F1.0
tp281
a(I71
I12
F1.0
tp282
a(I17
I13
F1.0
tp283
a(I18
I13
F-1.0
tp284
a(I20
I13
F-1.0
tp285
a(I29
I13
F1.0
tp286
a(I30
I13
F1.0
tp287
a(I34
I13
F1.0
tp288
a(I37
I13
F1.0
tp289
a(I38
I13
F-1.0
tp290
a(I49
I13
F-1.0
tp291
a(I53
I13
F1.0
tp292
a(I56
I13
F-1.0
tp293
a(I57
I13
F-1.0
tp294
a(I69
I13
F-1.0
tp295
a(I71
I13
F1.0
tp296
a(I74
I13
F1.0
tp297
a(I77
I13
F1.0
tp298
a(I0
I14
F1.0
tp299
a(I1
I14
F1.0
tp300
a(I5
I14
F-1.0
tp301
a(I10
I14
F1.0
tp302
a(I15
I14
F-1.0
tp303
a(I19
I14
F-1.0
tp304
a(I21
I14
F-1.0
tp305
a(I23
I14
F1.0
tp306
a(I26
I14
F1.0
tp307
a(I29
I14
F-1.0
tp308
a(I30
I14
F1.0
tp309
a(I33
I14
F-1.0
tp310
a(I35
I14
F1.0
tp311
a(I37
I14
F1.0
tp312
a(I39
I14
F1.0
tp313
a(I43
I14
F-1.0
tp314
a(I48
I14
F1.0
tp315
a(I52
I14
F1.0
tp316
a(I56
I14
F1.0
tp317
a(I59
I14
F1.0
tp318
a(I63
I14
F1.0
tp319
a(I70
I14
F-1.0
tp320
a(I72
I14
F1.0
tp321
a(I77
I14
F1.0
tp322
a(I79
I14
F1.0
tp323
a(I2
I15
F-1.0
tp324
a(I11
I15
F-1.0
tp325
a(I12
I15
F1.0
tp326
a(I18
I15
F1.0
tp327
a(I20
I15
F1.0
tp328
a(I23
I15
F1.0
tp329
a(I26
I15
F1.0
tp330
a(I30
I15
F1.0
tp331
a(I34
I15
F1.0
tp332
a(I37
I15
F1.0
tp333
a(I40
I15
F1.0
tp334
a(I42
I15
F1.0
tp335
a(I48
I15
F1.0
tp336
a(I49
I15
F-1.0
tp337
a(I52
I15
F1.0
tp338
a(I56
I15
F1.0
tp339
a(I58
I15
F1.0
tp340
a(I59
I15
F1.0
tp341
a(I60
I15
F-1.0
tp342
a(I71
I15
F1.0
tp343
a(I73
I15
F1.0
tp344
a(I74
I15
F1.0
tp345
a(I1
I16
F-1.0
tp346
a(I5
I16
F-1.0
tp347
a(I21
I16
F-1.0
tp348
a(I22
I16
F1.0
tp349
a(I29
I16
F-1.0
tp350
a(I30
I16
F1.0
tp351
a(I31
I16
F-1.0
tp352
a(I32
I16
F-1.0
tp353
a(I33
I16
F1.0
tp354
a(I34
I16
F1.0
tp355
a(I41
I16
F-1.0
tp356
a(I52
I16
F-1.0
tp357
a(I60
I16
F1.0
tp358
a(I64
I16
F-1.0
tp359
a(I74
I16
F1.0
tp360
a(I75
I16
F-1.0
tp361
a(I5
I17
F-1.0
tp362
a(I9
I17
F-1.0
tp363
a(I10
I17
F1.0
tp364
a(I14
I17
F-1.0
tp365
a(I29
I17
F-1.0
tp366
a(I30
I17
F1.0
tp367
a(I32
I17
F-1.0
tp368
a(I37
I17
F1.0
tp369
a(I45
I17
F-1.0
tp370
a(I48
I17
F-1.0
tp371
a(I49
I17
F-1.0
tp372
a(I53
I17
F-1.0
tp373
a(I59
I17
F1.0
tp374
a(I74
I17
F1.0
tp375
a(I75
I17
F-1.0
tp376
a(I78
I17
F-1.0
tp377
a(I79
I17
F1.0
tp378
a(I2
I18
F-1.0
tp379
a(I6
I18
F-1.0
tp380
a(I11
I18
F-1.0
tp381
a(I13
I18
F-1.0
tp382
a(I20
I18
F-1.0
tp383
a(I26
I18
F1.0
tp384
a(I29
I18
F1.0
tp385
a(I30
I18
F1.0
tp386
a(I33
I18
F1.0
tp387
a(I36
I18
F1.0
tp388
a(I37
I18
F1.0
tp389
a(I39
I18
F1.0
tp390
a(I49
I18
F-1.0
tp391
a(I52
I18
F-1.0
tp392
a(I57
I18
F-1.0
tp393
a(I62
I18
F-1.0
tp394
a(I65
I18
F1.0
tp395
a(I66
I18
F1.0
tp396
a(I68
I18
F1.0
tp397
a(I74
I18
F-1.0
tp398
a(I77
I18
F1.0
tp399
a(I79
I18
F1.0
tp400
a(I0
I19
F1.0
tp401
a(I2
I19
F1.0
tp402
a(I3
I19
F1.0
tp403
a(I6
I19
F-1.0
tp404
a(I10
I19
F-1.0
tp405
a(I17
I19
F-1.0
tp406
a(I22
I19
F1.0
tp407
a(I24
I19
F-1.0
tp408
a(I26
I19
F-1.0
tp409
a(I30
I19
F1.0
tp410
a(I31
I19
F-1.0
tp411
a(I33
I19
F1.0
tp412
a(I37
I19
F1.0
tp413
a(I38
I19
F-1.0
tp414
a(I42
I19
F-1.0
tp415
a(I46
I19
F-1.0
tp416
a(I51
I19
F1.0
tp417
a(I52
I19
F1.0
tp418
a(I53
I19
F1.0
tp419
a(I54
I19
F1.0
tp420
a(I58
I19
F-1.0
tp421
a(I59
I19
F1.0
tp422
a(I63
I19
F-1.0
tp423
a(I65
I19
F-1.0
tp424
a(I71
I19
F1.0
tp425
a(I74
I19
F1.0
tp426
a(I75
I19
F-1.0
tp427
a(I77
I19
F1.0
tp428
a(I1
I20
F1.0
tp429
a(I3
I20
F1.0
tp430
a(I5
I20
F-1.0
tp431
a(I10
I20
F-1.0
tp432
a(I11
I20
F-1.0
tp433
a(I20
I20
F-1.0
tp434
a(I27
I20
F1.0
tp435
a(I30
I20
F-1.0
tp436
a(I31
I20
F-1.0
tp437
a(I32
I20
F1.0
tp438
a(I33
I20
F1.0
tp439
a(I37
I20
F1.0
tp440
a(I39
I20
F1.0
tp441
a(I44
I20
F1.0
tp442
a(I53
I20
F-1.0
tp443
a(I58
I20
F-1.0
tp444
a(I59
I20
F1.0
tp445
a(I65
I20
F1.0
tp446
a(I67
I20
F1.0
tp447
a(I69
I20
F1.0
tp448
a(I71
I20
F1.0
tp449
a(I74
I20
F1.0
tp450
a(I77
I20
F1.0
tp451
a(I5
I21
F-1.0
tp452
a(I11
I21
F1.0
tp453
a(I20
I21
F1.0
tp454
a(I21
I21
F-1.0
tp455
a(I25
I21
F1.0
tp456
a(I26
I21
F1.0
tp457
a(I29
I21
F-1.0
tp458
a(I31
I21
F-1.0
tp459
a(I35
I21
F1.0
tp460
a(I36
I21
F1.0
tp461
a(I44
I21
F1.0
tp462
a(I52
I21
F1.0
tp463
a(I53
I21
F-1.0
tp464
a(I58
I21
F-1.0
tp465
a(I66
I21
F1.0
tp466
a(I67
I21
F-1.0
tp467
a(I71
I21
F1.0
tp468
a(I73
I21
F1.0
tp469
a(I76
I21
F-1.0
tp470
a(I79
I21
F1.0
tp471
a(I1
I22
F-1.0
tp472
a(I3
I22
F-1.0
tp473
a(I9
I22
F1.0
tp474
a(I10
I22
F1.0
tp475
a(I19
I22
F1.0
tp476
a(I30
I22
F1.0
tp477
a(I33
I22
F1.0
tp478
a(I35
I22
F1.0
tp479
a(I41
I22
F1.0
tp480
a(I56
I22
F1.0
tp481
a(I57
I22
F-1.0
tp482
a(I59
I22
F1.0
tp483
a(I60
I22
F1.0
tp484
a(I61
I22
F-1.0
tp485
a(I67
I22
F-1.0
tp486
a(I71
I22
F1.0
tp487
a(I74
I22
F-1.0
tp488
a(I75
I22
F1.0
tp489
a(I76
I22
F-1.0
tp490
a(I79
I22
F1.0
tp491
a(I2
I23
F1.0
tp492
a(I3
I23
F1.0
tp493
a(I5
I23
F1.0
tp494
a(I6
I23
F-1.0
tp495
a(I7
I23
F1.0
tp496
a(I16
I23
F-1.0
tp497
a(I20
I23
F-1.0
tp498
a(I26
I23
F1.0
tp499
a(I27
I23
F1.0
tp500
a(I32
I23
F1.0
tp501
a(I33
I23
F-1.0
tp502
a(I35
I23
F1.0
tp503
a(I38
I23
F-1.0
tp504
a(I39
I23
F1.0
tp505
a(I45
I23
F-1.0
tp506
a(I48
I23
F-1.0
tp507
a(I49
I23
F1.0
tp508
a(I51
I23
F1.0
tp509
a(I52
I23
F-1.0
tp510
a(I55
I23
F1.0
tp511
a(I59
I23
F1.0
tp512
a(I65
I23
F1.0
tp513
a(I66
I23
F1.0
tp514
a(I68
I23
F-1.0
tp515
a(I70
I23
F1.0
tp516
a(I73
I23
F1.0
tp517
a(I76
I23
F-1.0
tp518
a(I79
I23
F1.0
tp519
a(I1
I24
F1.0
tp520
a(I2
I24
F1.0
tp521
a(I13
I24
F-1.0
tp522
a(I20
I24
F-1.0
tp523
a(I23
I24
F-1.0
tp524
a(I25
I24
F1.0
tp525
a(I26
I24
F1.0
tp526
a(I31
I24
F1.0
tp527
a(I35
I24
F1.0
tp528
a(I36
I24
F1.0
tp529
a(I37
I24
F1.0
tp530
a(I49
I24
F-1.0
tp531
a(I59
I24
F1.0
tp532
a(I62
I24
F-1.0
tp533
a(I63
I24
F1.0
tp534
a(I67
I24
F1.0
tp535
a(I71
I24
F1.0
tp536
a(I74
I24
F-1.0
tp537
a(I77
I24
F1.0
tp538
a(I79
I24
F1.0
tp539
a(I2
I25
F-1.0
tp540
a(I3
I25
F-1.0
tp541
a(I6
I25
F-1.0
tp542
a(I11
I25
F1.0
tp543
a(I18
I25
F1.0
tp544
a(I19
I25
F1.0
tp545
a(I20
I25
F1.0
tp546
a(I23
I25
F1.0
tp547
a(I26
I25
F-1.0
tp548
a(I30
I25
F1.0
tp549
a(I37
I25
F1.0
tp550
a(I52
I25
F-1.0
tp551
a(I56
I25
F1.0
tp552
a(I59
I25
F1.0
tp553
a(I66
I25
F1.0
tp554
a(I68
I25
F1.0
tp555
a(I71
I25
F-1.0
tp556
a(I72
I25
F1.0
tp557
a(I75
I25
F1.0
tp558
a(I77
I25
F1.0
tp559
a(I80
I25
F-1.0
tp560
a(I15
I26
F-1.0
tp561
a(I21
I26
F1.0
tp562
a(I23
I26
F1.0
tp563
a(I29
I26
F-1.0
tp564
a(I30
I26
F1.0
tp565
a(I33
I26
F1.0
tp566
a(I34
I26
F1.0
tp567
a(I36
I26
F-1.0
tp568
a(I37
I26
F1.0
tp569
a(I52
I26
F-1.0
tp570
a(I53
I26
F1.0
tp571
a(I59
I26
F1.0
tp572
a(I61
I26
F1.0
tp573
a(I65
I26
F1.0
tp574
a(I71
I26
F-1.0
tp575
a(I74
I26
F1.0
tp576
a(I79
I26
F-1.0
tp577
a(I3
I27
F1.0
tp578
a(I5
I27
F-1.0
tp579
a(I9
I27
F-1.0
tp580
a(I10
I27
F-1.0
tp581
a(I12
I27
F1.0
tp582
a(I17
I27
F-1.0
tp583
a(I23
I27
F1.0
tp584
a(I25
I27
F1.0
tp585
a(I26
I27
F-1.0
tp586
a(I30
I27
F-1.0
tp587
a(I36
I27
F-1.0
tp588
a(I40
I27
F-1.0
tp589
a(I44
I27
F1.0
tp590
a(I45
I27
F-1.0
tp591
a(I46
I27
F-1.0
tp592
a(I52
I27
F-1.0
tp593
a(I53
I27
F1.0
tp594
a(I55
I27
F-1.0
tp595
a(I58
I27
F-1.0
tp596
a(I59
I27
F-1.0
tp597
a(I64
I27
F-1.0
tp598
a(I71
I27
F-1.0
tp599
a(I72
I27
F1.0
tp600
a(I74
I27
F1.0
tp601
a(I77
I27
F1.0
tp602
a(I2
I28
F-1.0
tp603
a(I10
I28
F-1.0
tp604
a(I13
I28
F1.0
tp605
a(I25
I28
F-1.0
tp606
a(I29
I28
F-1.0
tp607
a(I30
I28
F-1.0
tp608
a(I34
I28
F-1.0
tp609
a(I36
I28
F-1.0
tp610
a(I39
I28
F-1.0
tp611
a(I42
I28
F1.0
tp612
a(I57
I28
F1.0
tp613
a(I62
I28
F1.0
tp614
a(I69
I28
F1.0
tp615
a(I71
I28
F1.0
tp616
a(I74
I28
F1.0
tp617
a(I77
I28
F1.0
tp618
a(I79
I28
F-1.0
tp619
a(I80
I28
F-1.0
tp620
a(I2
I29
F-1.0
tp621
a(I19
I29
F1.0
tp622
a(I22
I29
F1.0
tp623
a(I26
I29
F1.0
tp624
a(I29
I29
F1.0
tp625
a(I30
I29
F1.0
tp626
a(I37
I29
F1.0
tp627
a(I38
I29
F-1.0
tp628
a(I48
I29
F-1.0
tp629
a(I51
I29
F1.0
tp630
a(I52
I29
F1.0
tp631
a(I54
I29
F1.0
tp632
a(I59
I29
F1.0
tp633
a(I61
I29
F-1.0
tp634
a(I67
I29
F-1.0
tp635
a(I73
I29
F-1.0
tp636
a(I16
I30
F1.0
tp637
a(I19
I30
F-1.0
tp638
a(I20
I30
F-1.0
tp639
a(I23
I30
F-1.0
tp640
a(I26
I30
F1.0
tp641
a(I33
I30
F1.0
tp642
a(I35
I30
F1.0
tp643
a(I36
I30
F1.0
tp644
a(I42
I30
F1.0
tp645
a(I47
I30
F-1.0
tp646
a(I55
I30
F1.0
tp647
a(I66
I30
F-1.0
tp648
a(I67
I30
F-1.0
tp649
a(I68
I30
F-1.0
tp650
a(I71
I30
F1.0
tp651
a(I79
I30
F1.0
tp652
a(I2
I31
F1.0
tp653
a(I10
I31
F1.0
tp654
a(I12
I31
F-1.0
tp655
a(I13
I31
F-1.0
tp656
a(I16
I31
F1.0
tp657
a(I18
I31
F-1.0
tp658
a(I21
I31
F-1.0
tp659
a(I23
I31
F-1.0
tp660
a(I25
I31
F1.0
tp661
a(I26
I31
F-1.0
tp662
a(I29
I31
F-1.0
tp663
a(I30
I31
F1.0
tp664
a(I33
I31
F-1.0
tp665
a(I34
I31
F-1.0
tp666
a(I36
I31
F-1.0
tp667
a(I37
I31
F1.0
tp668
a(I38
I31
F1.0
tp669
a(I39
I31
F-1.0
tp670
a(I52
I31
F-1.0
tp671
a(I53
I31
F-1.0
tp672
a(I54
I31
F1.0
tp673
a(I59
I31
F1.0
tp674
a(I61
I31
F-1.0
tp675
a(I69
I31
F-1.0
tp676
a(I71
I31
F-1.0
tp677
a(I74
I31
F1.0
tp678
a(I77
I31
F1.0
tp679
a(I79
I31
F-1.0
tp680
a(I80
I31
F-1.0
tp681
a.