(lp0
(I0
I27
I00
tp1
a(I0
I2
I00
tp2
a(I0
I10
I00
tp3
a(I0
I7
I00
tp4
a(I0
I3
I00
tp5
a(I0
I18
I00
tp6
a(I0
I20
I00
tp7
a(I0
I17
I00
tp8
a(I1
I27
I00
tp9
a(I1
I2
I00
tp10
a(I1
I10
I00
tp11
a(I1
I7
I00
tp12
a(I1
I3
I00
tp13
a(I1
I18
I00
tp14
a(I1
I20
I00
tp15
a(I1
I17
I00
tp16
a(I2
I3
I01
tp17
a(I2
I8
I01
tp18
a(I0
I8
I01
tp19
a(I1
I8
I01
tp20
a.