(lp0
(I0
I2
I00
tp1
a(I0
I10
I01
tp2
a(I2
I18
I01
tp3
a(I3
I3
I00
tp4
a(I3
I20
I00
tp5
a(I3
I7
I00
tp6
a(I3
I17
I00
tp7
a(I3
I18
I00
tp8
a(I3
I27
I00
tp9
a(I3
I10
I00
tp10
a(I3
I2
I00
tp11
a(I4
I18
I01
tp12
a(I4
I30
I01
tp13
a(I3
I30
I01
tp14
a(I2
I30
I01
tp15
a(I0
I30
I01
tp16
a.