(lp0
(I0
I10
I01
tp1
a(I1
I18
I01
tp2
a(I1
I17
I01
tp3
a(I2
I17
I01
tp4
a(I0
I10
I01
tp5
a(I0
I14
I01
tp6
a(I2
I14
I01
tp7
a(I1
I14
I01
tp8
a(I3
I14
I01
tp9
a(I4
I27
I01
tp10
a(I5
I7
I01
tp11
a(I6
I7
I01
tp12
a(I6
I7
I01
tp13
a(I4
I27
I01
tp14
a(I7
I1
I01
tp15
a(I5
I1
I01
tp16
a(I4
I1
I01
tp17
a(I6
I1
I01
tp18
a.